Component: ARM Compiler 5.05 update 1 (build 106) Tool: armlink [4d0efa]

==============================================================================

Section Cross References

    main.o(i.main) refers to delay.o(i.delay_init) for delay_init
    main.o(i.main) refers to led.o(i.LED_Init) for LED_Init
    main.o(i.main) refers to key.o(i.key_init) for key_init
    main.o(i.main) refers to usart1.o(i.usart1_init) for usart1_init
    main.o(i.main) refers to usart3.o(i.usart3_init) for usart3_init
    main.o(i.main) refers to usart_tren.o(i.usart_tren_init) for usart_tren_init
    main.o(i.main) refers to timer.o(i.TIM2_Init) for TIM2_Init
    main.o(i.main) refers to sdio_sdcard.o(i.SD_Init) for SD_Init
    main.o(i.main) refers to file.o(i.FileSystemInit) for FileSystemInit
    main.o(i.main) refers to delay.o(i.delay_ms) for delay_ms
    main.o(i.main) refers to ax12.o(i.axAllPosition) for axAllPosition
    main.o(i.main) refers to action.o(i.ExAction) for ExAction
    main.o(i.main) refers to config.o(.data) for InitialPosition_with_arm
    main.o(i.main) refers to usart1.o(.data) for getAction
    system_stm32f10x.o(i.SetSysClock) refers to system_stm32f10x.o(i.SetSysClockTo72) for SetSysClockTo72
    system_stm32f10x.o(i.SystemCoreClockUpdate) refers to system_stm32f10x.o(.data) for SystemCoreClock
    system_stm32f10x.o(i.SystemInit) refers to system_stm32f10x.o(i.SetSysClock) for SetSysClock
    delay.o(i.delay_init) refers to misc.o(i.SysTick_CLKSourceConfig) for SysTick_CLKSourceConfig
    delay.o(i.delay_init) refers to system_stm32f10x.o(.data) for SystemCoreClock
    delay.o(i.delay_init) refers to delay.o(.data) for fac_us
    delay.o(i.delay_ms) refers to delay.o(.data) for fac_ms
    delay.o(i.delay_us) refers to delay.o(.data) for fac_us
    startup_stm32f10x_hd.o(STACK) refers (Special) to heapauxi.o(.text) for __use_two_region_memory
    startup_stm32f10x_hd.o(HEAP) refers (Special) to heapauxi.o(.text) for __use_two_region_memory
    startup_stm32f10x_hd.o(RESET) refers (Special) to heapauxi.o(.text) for __use_two_region_memory
    startup_stm32f10x_hd.o(RESET) refers to startup_stm32f10x_hd.o(STACK) for __initial_sp
    startup_stm32f10x_hd.o(RESET) refers to startup_stm32f10x_hd.o(.text) for Reset_Handler
    startup_stm32f10x_hd.o(RESET) refers to stm32f10x_it.o(i.NMI_Handler) for NMI_Handler
    startup_stm32f10x_hd.o(RESET) refers to stm32f10x_it.o(i.HardFault_Handler) for HardFault_Handler
    startup_stm32f10x_hd.o(RESET) refers to stm32f10x_it.o(i.MemManage_Handler) for MemManage_Handler
    startup_stm32f10x_hd.o(RESET) refers to stm32f10x_it.o(i.BusFault_Handler) for BusFault_Handler
    startup_stm32f10x_hd.o(RESET) refers to stm32f10x_it.o(i.UsageFault_Handler) for UsageFault_Handler
    startup_stm32f10x_hd.o(RESET) refers to stm32f10x_it.o(i.SVC_Handler) for SVC_Handler
    startup_stm32f10x_hd.o(RESET) refers to stm32f10x_it.o(i.DebugMon_Handler) for DebugMon_Handler
    startup_stm32f10x_hd.o(RESET) refers to stm32f10x_it.o(i.PendSV_Handler) for PendSV_Handler
    startup_stm32f10x_hd.o(RESET) refers to stm32f10x_it.o(i.SysTick_Handler) for SysTick_Handler
    startup_stm32f10x_hd.o(RESET) refers to key.o(i.EXTI1_IRQHandler) for EXTI1_IRQHandler
    startup_stm32f10x_hd.o(RESET) refers to dma.o(i.DMA1_Channel2_IRQHandler) for DMA1_Channel2_IRQHandler
    startup_stm32f10x_hd.o(RESET) refers to timer.o(i.TIM2_IRQHandler) for TIM2_IRQHandler
    startup_stm32f10x_hd.o(RESET) refers to pwm.o(i.TIM4_IRQHandler) for TIM4_IRQHandler
    startup_stm32f10x_hd.o(RESET) refers to usart1.o(i.USART1_IRQHandler) for USART1_IRQHandler
    startup_stm32f10x_hd.o(RESET) refers to usart2.o(i.USART2_IRQHandler) for USART2_IRQHandler
    startup_stm32f10x_hd.o(RESET) refers to usart3.o(i.USART3_IRQHandler) for USART3_IRQHandler
    startup_stm32f10x_hd.o(.text) refers (Special) to heapauxi.o(.text) for __use_two_region_memory
    startup_stm32f10x_hd.o(.text) refers to system_stm32f10x.o(i.SystemInit) for SystemInit
    startup_stm32f10x_hd.o(.text) refers to __main.o(!!!main) for __main
    startup_stm32f10x_hd.o(.text) refers to startup_stm32f10x_hd.o(HEAP) for Heap_Mem
    startup_stm32f10x_hd.o(.text) refers to startup_stm32f10x_hd.o(STACK) for Stack_Mem
    stm32f10x_adc.o(i.ADC_DeInit) refers to stm32f10x_rcc.o(i.RCC_APB2PeriphResetCmd) for RCC_APB2PeriphResetCmd
    stm32f10x_bkp.o(i.BKP_DeInit) refers to stm32f10x_rcc.o(i.RCC_BackupResetCmd) for RCC_BackupResetCmd
    stm32f10x_can.o(i.CAN_DeInit) refers to stm32f10x_rcc.o(i.RCC_APB1PeriphResetCmd) for RCC_APB1PeriphResetCmd
    stm32f10x_can.o(i.CAN_GetITStatus) refers to stm32f10x_can.o(i.CheckITStatus) for CheckITStatus
    stm32f10x_cec.o(i.CEC_DeInit) refers to stm32f10x_rcc.o(i.RCC_APB1PeriphResetCmd) for RCC_APB1PeriphResetCmd
    stm32f10x_dac.o(i.DAC_DeInit) refers to stm32f10x_rcc.o(i.RCC_APB1PeriphResetCmd) for RCC_APB1PeriphResetCmd
    stm32f10x_flash.o(i.FLASH_EnableWriteProtection) refers to stm32f10x_flash.o(i.FLASH_WaitForLastOperation) for FLASH_WaitForLastOperation
    stm32f10x_flash.o(i.FLASH_EraseAllBank1Pages) refers to stm32f10x_flash.o(i.FLASH_WaitForLastBank1Operation) for FLASH_WaitForLastBank1Operation
    stm32f10x_flash.o(i.FLASH_EraseAllPages) refers to stm32f10x_flash.o(i.FLASH_WaitForLastOperation) for FLASH_WaitForLastOperation
    stm32f10x_flash.o(i.FLASH_EraseOptionBytes) refers to stm32f10x_flash.o(i.FLASH_GetReadOutProtectionStatus) for FLASH_GetReadOutProtectionStatus
    stm32f10x_flash.o(i.FLASH_EraseOptionBytes) refers to stm32f10x_flash.o(i.FLASH_WaitForLastOperation) for FLASH_WaitForLastOperation
    stm32f10x_flash.o(i.FLASH_ErasePage) refers to stm32f10x_flash.o(i.FLASH_WaitForLastOperation) for FLASH_WaitForLastOperation
    stm32f10x_flash.o(i.FLASH_ProgramHalfWord) refers to stm32f10x_flash.o(i.FLASH_WaitForLastOperation) for FLASH_WaitForLastOperation
    stm32f10x_flash.o(i.FLASH_ProgramOptionByteData) refers to stm32f10x_flash.o(i.FLASH_WaitForLastOperation) for FLASH_WaitForLastOperation
    stm32f10x_flash.o(i.FLASH_ProgramWord) refers to stm32f10x_flash.o(i.FLASH_WaitForLastOperation) for FLASH_WaitForLastOperation
    stm32f10x_flash.o(i.FLASH_ReadOutProtection) refers to stm32f10x_flash.o(i.FLASH_WaitForLastOperation) for FLASH_WaitForLastOperation
    stm32f10x_flash.o(i.FLASH_UserOptionByteConfig) refers to stm32f10x_flash.o(i.FLASH_WaitForLastOperation) for FLASH_WaitForLastOperation
    stm32f10x_flash.o(i.FLASH_WaitForLastBank1Operation) refers to stm32f10x_flash.o(i.FLASH_GetBank1Status) for FLASH_GetBank1Status
    stm32f10x_flash.o(i.FLASH_WaitForLastOperation) refers to stm32f10x_flash.o(i.FLASH_GetBank1Status) for FLASH_GetBank1Status
    stm32f10x_gpio.o(i.GPIO_AFIODeInit) refers to stm32f10x_rcc.o(i.RCC_APB2PeriphResetCmd) for RCC_APB2PeriphResetCmd
    stm32f10x_gpio.o(i.GPIO_DeInit) refers to stm32f10x_rcc.o(i.RCC_APB2PeriphResetCmd) for RCC_APB2PeriphResetCmd
    stm32f10x_i2c.o(i.I2C_DeInit) refers to stm32f10x_rcc.o(i.RCC_APB1PeriphResetCmd) for RCC_APB1PeriphResetCmd
    stm32f10x_i2c.o(i.I2C_Init) refers to stm32f10x_rcc.o(i.RCC_GetClocksFreq) for RCC_GetClocksFreq
    stm32f10x_pwr.o(i.PWR_DeInit) refers to stm32f10x_rcc.o(i.RCC_APB1PeriphResetCmd) for RCC_APB1PeriphResetCmd
    stm32f10x_rcc.o(i.RCC_GetClocksFreq) refers to stm32f10x_rcc.o(.data) for APBAHBPrescTable
    stm32f10x_rcc.o(i.RCC_WaitForHSEStartUp) refers to stm32f10x_rcc.o(i.RCC_GetFlagStatus) for RCC_GetFlagStatus
    stm32f10x_rtc.o(i.RTC_SetAlarm) refers to stm32f10x_rtc.o(i.RTC_EnterConfigMode) for RTC_EnterConfigMode
    stm32f10x_rtc.o(i.RTC_SetAlarm) refers to stm32f10x_rtc.o(i.RTC_ExitConfigMode) for RTC_ExitConfigMode
    stm32f10x_rtc.o(i.RTC_SetCounter) refers to stm32f10x_rtc.o(i.RTC_EnterConfigMode) for RTC_EnterConfigMode
    stm32f10x_rtc.o(i.RTC_SetCounter) refers to stm32f10x_rtc.o(i.RTC_ExitConfigMode) for RTC_ExitConfigMode
    stm32f10x_rtc.o(i.RTC_SetPrescaler) refers to stm32f10x_rtc.o(i.RTC_EnterConfigMode) for RTC_EnterConfigMode
    stm32f10x_rtc.o(i.RTC_SetPrescaler) refers to stm32f10x_rtc.o(i.RTC_ExitConfigMode) for RTC_ExitConfigMode
    stm32f10x_spi.o(i.I2S_Init) refers to stm32f10x_rcc.o(i.RCC_GetClocksFreq) for RCC_GetClocksFreq
    stm32f10x_spi.o(i.SPI_I2S_DeInit) refers to stm32f10x_rcc.o(i.RCC_APB2PeriphResetCmd) for RCC_APB2PeriphResetCmd
    stm32f10x_spi.o(i.SPI_I2S_DeInit) refers to stm32f10x_rcc.o(i.RCC_APB1PeriphResetCmd) for RCC_APB1PeriphResetCmd
    stm32f10x_tim.o(i.TIM_DeInit) refers to stm32f10x_rcc.o(i.RCC_APB2PeriphResetCmd) for RCC_APB2PeriphResetCmd
    stm32f10x_tim.o(i.TIM_DeInit) refers to stm32f10x_rcc.o(i.RCC_APB1PeriphResetCmd) for RCC_APB1PeriphResetCmd
    stm32f10x_tim.o(i.TIM_ETRClockMode1Config) refers to stm32f10x_tim.o(i.TIM_ETRConfig) for TIM_ETRConfig
    stm32f10x_tim.o(i.TIM_ETRClockMode2Config) refers to stm32f10x_tim.o(i.TIM_ETRConfig) for TIM_ETRConfig
    stm32f10x_tim.o(i.TIM_ICInit) refers to stm32f10x_tim.o(i.TI1_Config) for TI1_Config
    stm32f10x_tim.o(i.TIM_ICInit) refers to stm32f10x_tim.o(i.TIM_SetIC1Prescaler) for TIM_SetIC1Prescaler
    stm32f10x_tim.o(i.TIM_ICInit) refers to stm32f10x_tim.o(i.TI2_Config) for TI2_Config
    stm32f10x_tim.o(i.TIM_ICInit) refers to stm32f10x_tim.o(i.TIM_SetIC2Prescaler) for TIM_SetIC2Prescaler
    stm32f10x_tim.o(i.TIM_ICInit) refers to stm32f10x_tim.o(i.TI3_Config) for TI3_Config
    stm32f10x_tim.o(i.TIM_ICInit) refers to stm32f10x_tim.o(i.TIM_SetIC3Prescaler) for TIM_SetIC3Prescaler
    stm32f10x_tim.o(i.TIM_ICInit) refers to stm32f10x_tim.o(i.TI4_Config) for TI4_Config
    stm32f10x_tim.o(i.TIM_ICInit) refers to stm32f10x_tim.o(i.TIM_SetIC4Prescaler) for TIM_SetIC4Prescaler
    stm32f10x_tim.o(i.TIM_ITRxExternalClockConfig) refers to stm32f10x_tim.o(i.TIM_SelectInputTrigger) for TIM_SelectInputTrigger
    stm32f10x_tim.o(i.TIM_PWMIConfig) refers to stm32f10x_tim.o(i.TI1_Config) for TI1_Config
    stm32f10x_tim.o(i.TIM_PWMIConfig) refers to stm32f10x_tim.o(i.TIM_SetIC1Prescaler) for TIM_SetIC1Prescaler
    stm32f10x_tim.o(i.TIM_PWMIConfig) refers to stm32f10x_tim.o(i.TI2_Config) for TI2_Config
    stm32f10x_tim.o(i.TIM_PWMIConfig) refers to stm32f10x_tim.o(i.TIM_SetIC2Prescaler) for TIM_SetIC2Prescaler
    stm32f10x_tim.o(i.TIM_TIxExternalClockConfig) refers to stm32f10x_tim.o(i.TI2_Config) for TI2_Config
    stm32f10x_tim.o(i.TIM_TIxExternalClockConfig) refers to stm32f10x_tim.o(i.TI1_Config) for TI1_Config
    stm32f10x_tim.o(i.TIM_TIxExternalClockConfig) refers to stm32f10x_tim.o(i.TIM_SelectInputTrigger) for TIM_SelectInputTrigger
    stm32f10x_usart.o(i.USART_DeInit) refers to stm32f10x_rcc.o(i.RCC_APB2PeriphResetCmd) for RCC_APB2PeriphResetCmd
    stm32f10x_usart.o(i.USART_DeInit) refers to stm32f10x_rcc.o(i.RCC_APB1PeriphResetCmd) for RCC_APB1PeriphResetCmd
    stm32f10x_usart.o(i.USART_Init) refers to stm32f10x_rcc.o(i.RCC_GetClocksFreq) for RCC_GetClocksFreq
    stm32f10x_wwdg.o(i.WWDG_DeInit) refers to stm32f10x_rcc.o(i.RCC_APB1PeriphResetCmd) for RCC_APB1PeriphResetCmd
    ustdout.o(i._sys_exit) refers (Special) to use_no_semi_2.o(.text) for __use_no_semihosting
    ustdout.o(i.fputc) refers (Special) to use_no_semi_2.o(.text) for __use_no_semihosting
    ustdout.o(i.fputc) refers to ustdout.o(.data) for stdout_USARTx
    ustdout.o(i.usartx_senddat) refers (Special) to use_no_semi_2.o(.text) for __use_no_semihosting
    ustdout.o(i.usartx_senddat) refers to usart1.o(i.usart1_senddat) for usart1_senddat
    ustdout.o(i.usartx_senddat) refers to usart2.o(i.usart2_senddat) for usart2_senddat
    ustdout.o(i.usartx_senddat) refers to usart3.o(i.usart3_senddat) for usart3_senddat
    ustdout.o(.data) refers (Special) to use_no_semi_2.o(.text) for __use_no_semihosting
    usart1.o(i.USART1_IRQHandler) refers to action.o(i.Speed_up) for Speed_up
    usart1.o(i.USART1_IRQHandler) refers to action.o(i.Speed_down) for Speed_down
    usart1.o(i.USART1_IRQHandler) refers to ax12.o(i.axAllPosition) for axAllPosition
    usart1.o(i.USART1_IRQHandler) refers to delay.o(i.delay_ms) for delay_ms
    usart1.o(i.USART1_IRQHandler) refers to usart1.o(.bss) for u1buf
    usart1.o(i.USART1_IRQHandler) refers to usart1.o(.data) for u1len
    usart1.o(i.USART1_IRQHandler) refers to action.o(.data) for stop
    usart1.o(i.USART1_IRQHandler) refers to config.o(.data) for InitialPosition_with_arm
    usart1.o(i.usart1_init) refers to misc.o(i.NVIC_Init) for NVIC_Init
    usart1.o(i.usart1_init) refers to stm32f10x_usart.o(i.USART_Init) for USART_Init
    usart1.o(i.usart1_init) refers to usart1.o(.constdata) for .constdata
    usart1.o(i.usart1_init) refers to intconfig.o(.data) for USART1_NVIC_CONFIG
    usart2.o(i.USART2_IRQHandler) refers to usart2.o(.bss) for u2buf
    usart2.o(i.USART2_IRQHandler) refers to usart2.o(.data) for u2len
    usart2.o(i.usart2_init) refers to misc.o(i.NVIC_Init) for NVIC_Init
    usart2.o(i.usart2_init) refers to stm32f10x_usart.o(i.USART_Init) for USART_Init
    usart2.o(i.usart2_init) refers to usart2.o(.constdata) for .constdata
    usart2.o(i.usart2_init) refers to intconfig.o(.data) for USART2_NVIC_CONFIG
    usart3.o(i.USART3_IRQHandler) refers to usart3.o(.bss) for u3buf
    usart3.o(i.USART3_IRQHandler) refers to usart3.o(.data) for u3len
    usart3.o(i.usart3_init) refers to misc.o(i.NVIC_Init) for NVIC_Init
    usart3.o(i.usart3_init) refers to stm32f10x_usart.o(i.USART_Init) for USART_Init
    usart3.o(i.usart3_init) refers to usart3.o(.constdata) for .constdata
    usart3.o(i.usart3_init) refers to intconfig.o(.data) for USART3_NVIC_CONFIG
    usart_tren.o(i.usart_tren_init) refers to stm32f10x_rcc.o(i.RCC_APB2PeriphClockCmd) for RCC_APB2PeriphClockCmd
    usart_tren.o(i.usart_tren_init) refers to stm32f10x_gpio.o(i.GPIO_Init) for GPIO_Init
    usart_tren.o(i.usart_tren_init) refers to usart_tren.o(i.usart_moderx) for usart_moderx
    led.o(i.LED_Init) refers to stm32f10x_rcc.o(i.RCC_APB2PeriphClockCmd) for RCC_APB2PeriphClockCmd
    led.o(i.LED_Init) refers to stm32f10x_gpio.o(i.GPIO_Init) for GPIO_Init
    led.o(i.LED_Init) refers to stm32f10x_gpio.o(i.GPIO_SetBits) for GPIO_SetBits
    timer.o(i.TIM2_IRQHandler) refers to stm32f10x_tim.o(i.TIM_GetITStatus) for TIM_GetITStatus
    timer.o(i.TIM2_IRQHandler) refers to stm32f10x_tim.o(i.TIM_ClearITPendingBit) for TIM_ClearITPendingBit
    timer.o(i.TIM2_IRQHandler) refers to timer.o(.data) for count_sec
    timer.o(i.TIM2_Init) refers to stm32f10x_rcc.o(i.RCC_APB1PeriphClockCmd) for RCC_APB1PeriphClockCmd
    timer.o(i.TIM2_Init) refers to stm32f10x_tim.o(i.TIM_TimeBaseInit) for TIM_TimeBaseInit
    timer.o(i.TIM2_Init) refers to stm32f10x_tim.o(i.TIM_ITConfig) for TIM_ITConfig
    timer.o(i.TIM2_Init) refers to misc.o(i.NVIC_Init) for NVIC_Init
    timer.o(i.TIM2_Init) refers to stm32f10x_tim.o(i.TIM_Cmd) for TIM_Cmd
    timer.o(i.TIM2_Init) refers to intconfig.o(.data) for TIM2_NVIC_CONFIG
    timer.o(i.clock_ms) refers to dflt_clz.o(x$fpl$dfltu) for __aeabi_ui2d
    timer.o(i.clock_ms) refers to ddiv.o(x$fpl$ddiv) for __aeabi_ddiv
    timer.o(i.clock_ms) refers to dflt_clz.o(x$fpl$dflt) for __aeabi_i2d
    timer.o(i.clock_ms) refers to daddsub_clz.o(x$fpl$dadd) for __aeabi_dadd
    timer.o(i.clock_ms) refers to dfixu.o(x$fpl$dfixu) for __aeabi_d2uiz
    timer.o(i.clock_ms) refers to timer.o(.data) for count_sec
    sdio_sdcard.o(i.CmdError) refers to stm32f10x_sdio.o(i.SDIO_GetFlagStatus) for SDIO_GetFlagStatus
    sdio_sdcard.o(i.CmdError) refers to stm32f10x_sdio.o(i.SDIO_ClearFlag) for SDIO_ClearFlag
    sdio_sdcard.o(i.CmdResp2Error) refers to stm32f10x_sdio.o(i.SDIO_ClearFlag) for SDIO_ClearFlag
    sdio_sdcard.o(i.CmdResp3Error) refers to stm32f10x_sdio.o(i.SDIO_ClearFlag) for SDIO_ClearFlag
    sdio_sdcard.o(i.CmdResp6Error) refers to stm32f10x_sdio.o(i.SDIO_ClearFlag) for SDIO_ClearFlag
    sdio_sdcard.o(i.CmdResp6Error) refers to stm32f10x_sdio.o(i.SDIO_GetCommandResponse) for SDIO_GetCommandResponse
    sdio_sdcard.o(i.CmdResp6Error) refers to stm32f10x_sdio.o(i.SDIO_GetResponse) for SDIO_GetResponse
    sdio_sdcard.o(i.CmdResp7Error) refers to stm32f10x_sdio.o(i.SDIO_ClearFlag) for SDIO_ClearFlag
    sdio_sdcard.o(i.FindSCR) refers to stm32f10x_sdio.o(i.SDIO_SendCommand) for SDIO_SendCommand
    sdio_sdcard.o(i.FindSCR) refers to sdio_sdcard.o(i.CmdResp1Error) for CmdResp1Error
    sdio_sdcard.o(i.FindSCR) refers to stm32f10x_sdio.o(i.SDIO_DataConfig) for SDIO_DataConfig
    sdio_sdcard.o(i.FindSCR) refers to stm32f10x_sdio.o(i.SDIO_GetFlagStatus) for SDIO_GetFlagStatus
    sdio_sdcard.o(i.FindSCR) refers to stm32f10x_sdio.o(i.SDIO_ReadData) for SDIO_ReadData
    sdio_sdcard.o(i.FindSCR) refers to stm32f10x_sdio.o(i.SDIO_ClearFlag) for SDIO_ClearFlag
    sdio_sdcard.o(i.FindSCR) refers to sdio_sdcard.o(.bss) for SDIO_CmdInitStructure
    sdio_sdcard.o(i.FindSCR) refers to sdio_sdcard.o(.data) for RCA
    sdio_sdcard.o(i.IsCardProgramming) refers to stm32f10x_sdio.o(i.SDIO_SendCommand) for SDIO_SendCommand
    sdio_sdcard.o(i.IsCardProgramming) refers to stm32f10x_sdio.o(i.SDIO_ClearFlag) for SDIO_ClearFlag
    sdio_sdcard.o(i.IsCardProgramming) refers to stm32f10x_sdio.o(i.SDIO_GetCommandResponse) for SDIO_GetCommandResponse
    sdio_sdcard.o(i.IsCardProgramming) refers to stm32f10x_sdio.o(i.SDIO_GetResponse) for SDIO_GetResponse
    sdio_sdcard.o(i.IsCardProgramming) refers to sdio_sdcard.o(.data) for RCA
    sdio_sdcard.o(i.IsCardProgramming) refers to sdio_sdcard.o(.bss) for SDIO_CmdInitStructure
    sdio_sdcard.o(i.SDEnWideBus) refers to stm32f10x_sdio.o(i.SDIO_GetResponse) for SDIO_GetResponse
    sdio_sdcard.o(i.SDEnWideBus) refers to sdio_sdcard.o(i.FindSCR) for FindSCR
    sdio_sdcard.o(i.SDEnWideBus) refers to stm32f10x_sdio.o(i.SDIO_SendCommand) for SDIO_SendCommand
    sdio_sdcard.o(i.SDEnWideBus) refers to sdio_sdcard.o(i.CmdResp1Error) for CmdResp1Error
    sdio_sdcard.o(i.SDEnWideBus) refers to sdio_sdcard.o(.data) for RCA
    sdio_sdcard.o(i.SDEnWideBus) refers to sdio_sdcard.o(.bss) for SDIO_CmdInitStructure
    sdio_sdcard.o(i.SD_DMAEndOfTransferStatus) refers to stm32f10x_dma.o(i.DMA_GetFlagStatus) for DMA_GetFlagStatus
    sdio_sdcard.o(i.SD_DMA_RxConfig) refers to stm32f10x_dma.o(i.DMA_ClearFlag) for DMA_ClearFlag
    sdio_sdcard.o(i.SD_DMA_RxConfig) refers to stm32f10x_dma.o(i.DMA_Cmd) for DMA_Cmd
    sdio_sdcard.o(i.SD_DMA_RxConfig) refers to stm32f10x_dma.o(i.DMA_Init) for DMA_Init
    sdio_sdcard.o(i.SD_DMA_TxConfig) refers to stm32f10x_dma.o(i.DMA_ClearFlag) for DMA_ClearFlag
    sdio_sdcard.o(i.SD_DMA_TxConfig) refers to stm32f10x_dma.o(i.DMA_Cmd) for DMA_Cmd
    sdio_sdcard.o(i.SD_DMA_TxConfig) refers to stm32f10x_dma.o(i.DMA_Init) for DMA_Init
    sdio_sdcard.o(i.SD_DeInit) refers to stm32f10x_sdio.o(i.SDIO_ClockCmd) for SDIO_ClockCmd
    sdio_sdcard.o(i.SD_DeInit) refers to stm32f10x_sdio.o(i.SDIO_SetPowerState) for SDIO_SetPowerState
    sdio_sdcard.o(i.SD_DeInit) refers to stm32f10x_sdio.o(i.SDIO_DeInit) for SDIO_DeInit
    sdio_sdcard.o(i.SD_DeInit) refers to stm32f10x_rcc.o(i.RCC_AHBPeriphClockCmd) for RCC_AHBPeriphClockCmd
    sdio_sdcard.o(i.SD_DeInit) refers to stm32f10x_gpio.o(i.GPIO_Init) for GPIO_Init
    sdio_sdcard.o(i.SD_EnableWideBusOperation) refers to sdio_sdcard.o(i.SDEnWideBus) for SDEnWideBus
    sdio_sdcard.o(i.SD_EnableWideBusOperation) refers to stm32f10x_sdio.o(i.SDIO_Init) for SDIO_Init
    sdio_sdcard.o(i.SD_EnableWideBusOperation) refers to sdio_sdcard.o(.data) for CardType
    sdio_sdcard.o(i.SD_EnableWideBusOperation) refers to sdio_sdcard.o(.bss) for SDIO_InitStructure
    sdio_sdcard.o(i.SD_Erase) refers to stm32f10x_sdio.o(i.SDIO_GetResponse) for SDIO_GetResponse
    sdio_sdcard.o(i.SD_Erase) refers to stm32f10x_sdio.o(i.SDIO_SendCommand) for SDIO_SendCommand
    sdio_sdcard.o(i.SD_Erase) refers to sdio_sdcard.o(i.CmdResp1Error) for CmdResp1Error
    sdio_sdcard.o(i.SD_Erase) refers to sdio_sdcard.o(i.IsCardProgramming) for IsCardProgramming
    sdio_sdcard.o(i.SD_Erase) refers to sdio_sdcard.o(.bss) for CSD_Tab
    sdio_sdcard.o(i.SD_Erase) refers to sdio_sdcard.o(.data) for CardType
    sdio_sdcard.o(i.SD_GPIO_Configuration) refers to stm32f10x_rcc.o(i.RCC_APB2PeriphClockCmd) for RCC_APB2PeriphClockCmd
    sdio_sdcard.o(i.SD_GPIO_Configuration) refers to stm32f10x_gpio.o(i.GPIO_Init) for GPIO_Init
    sdio_sdcard.o(i.SD_GPIO_Configuration) refers to stm32f10x_rcc.o(i.RCC_AHBPeriphClockCmd) for RCC_AHBPeriphClockCmd
    sdio_sdcard.o(i.SD_GetCardInfo) refers to sdio_sdcard.o(.data) for CardType
    sdio_sdcard.o(i.SD_GetCardInfo) refers to sdio_sdcard.o(.bss) for CSD_Tab
    sdio_sdcard.o(i.SD_GetCardStatus) refers to sdio_sdcard.o(i.SD_SendSDStatus) for SD_SendSDStatus
    sdio_sdcard.o(i.SD_GetCardStatus) refers to sdio_sdcard.o(.bss) for SDSTATUS_Tab
    sdio_sdcard.o(i.SD_GetState) refers to sdio_sdcard.o(i.SD_SendStatus) for SD_SendStatus
    sdio_sdcard.o(i.SD_GetStatus) refers to sdio_sdcard.o(i.SD_GetState) for SD_GetState
    sdio_sdcard.o(i.SD_Init) refers to sdio_sdcard.o(i.SD_GPIO_Configuration) for SD_GPIO_Configuration
    sdio_sdcard.o(i.SD_Init) refers to stm32f10x_sdio.o(i.SDIO_DeInit) for SDIO_DeInit
    sdio_sdcard.o(i.SD_Init) refers to sdio_sdcard.o(i.SD_PowerON) for SD_PowerON
    sdio_sdcard.o(i.SD_Init) refers to sdio_sdcard.o(i.SD_InitializeCards) for SD_InitializeCards
    sdio_sdcard.o(i.SD_Init) refers to stm32f10x_sdio.o(i.SDIO_Init) for SDIO_Init
    sdio_sdcard.o(i.SD_Init) refers to sdio_sdcard.o(i.SD_GetCardInfo) for SD_GetCardInfo
    sdio_sdcard.o(i.SD_Init) refers to sdio_sdcard.o(i.SD_SelectDeselect) for SD_SelectDeselect
    sdio_sdcard.o(i.SD_Init) refers to sdio_sdcard.o(i.SD_EnableWideBusOperation) for SD_EnableWideBusOperation
    sdio_sdcard.o(i.SD_Init) refers to sdio_sdcard.o(.bss) for SDIO_InitStructure
    sdio_sdcard.o(i.SD_InitializeCards) refers to stm32f10x_sdio.o(i.SDIO_GetPowerState) for SDIO_GetPowerState
    sdio_sdcard.o(i.SD_InitializeCards) refers to stm32f10x_sdio.o(i.SDIO_SendCommand) for SDIO_SendCommand
    sdio_sdcard.o(i.SD_InitializeCards) refers to sdio_sdcard.o(i.CmdResp2Error) for CmdResp2Error
    sdio_sdcard.o(i.SD_InitializeCards) refers to stm32f10x_sdio.o(i.SDIO_GetResponse) for SDIO_GetResponse
    sdio_sdcard.o(i.SD_InitializeCards) refers to sdio_sdcard.o(i.CmdResp6Error) for CmdResp6Error
    sdio_sdcard.o(i.SD_InitializeCards) refers to sdio_sdcard.o(.data) for CardType
    sdio_sdcard.o(i.SD_InitializeCards) refers to sdio_sdcard.o(.bss) for SDIO_CmdInitStructure
    sdio_sdcard.o(i.SD_PowerOFF) refers to stm32f10x_sdio.o(i.SDIO_SetPowerState) for SDIO_SetPowerState
    sdio_sdcard.o(i.SD_PowerON) refers to stm32f10x_sdio.o(i.SDIO_Init) for SDIO_Init
    sdio_sdcard.o(i.SD_PowerON) refers to stm32f10x_sdio.o(i.SDIO_SetPowerState) for SDIO_SetPowerState
    sdio_sdcard.o(i.SD_PowerON) refers to stm32f10x_sdio.o(i.SDIO_ClockCmd) for SDIO_ClockCmd
    sdio_sdcard.o(i.SD_PowerON) refers to stm32f10x_sdio.o(i.SDIO_SendCommand) for SDIO_SendCommand
    sdio_sdcard.o(i.SD_PowerON) refers to sdio_sdcard.o(i.CmdError) for CmdError
    sdio_sdcard.o(i.SD_PowerON) refers to sdio_sdcard.o(i.CmdResp7Error) for CmdResp7Error
    sdio_sdcard.o(i.SD_PowerON) refers to sdio_sdcard.o(i.CmdResp1Error) for CmdResp1Error
    sdio_sdcard.o(i.SD_PowerON) refers to sdio_sdcard.o(i.CmdResp3Error) for CmdResp3Error
    sdio_sdcard.o(i.SD_PowerON) refers to stm32f10x_sdio.o(i.SDIO_GetResponse) for SDIO_GetResponse
    sdio_sdcard.o(i.SD_PowerON) refers to sdio_sdcard.o(.bss) for SDIO_InitStructure
    sdio_sdcard.o(i.SD_PowerON) refers to sdio_sdcard.o(.data) for CardType
    sdio_sdcard.o(i.SD_ProcessIRQSrc) refers to sdio_sdcard.o(i.CmdResp1Error) for CmdResp1Error
    sdio_sdcard.o(i.SD_ProcessIRQSrc) refers to stm32f10x_sdio.o(i.SDIO_ClearITPendingBit) for SDIO_ClearITPendingBit
    sdio_sdcard.o(i.SD_ProcessIRQSrc) refers to stm32f10x_sdio.o(i.SDIO_ITConfig) for SDIO_ITConfig
    sdio_sdcard.o(i.SD_ProcessIRQSrc) refers to sdio_sdcard.o(.data) for StopCondition
    sdio_sdcard.o(i.SD_ReadBlock) refers to stm32f10x_sdio.o(i.SDIO_SendCommand) for SDIO_SendCommand
    sdio_sdcard.o(i.SD_ReadBlock) refers to sdio_sdcard.o(i.CmdResp1Error) for CmdResp1Error
    sdio_sdcard.o(i.SD_ReadBlock) refers to stm32f10x_sdio.o(i.SDIO_DataConfig) for SDIO_DataConfig
    sdio_sdcard.o(i.SD_ReadBlock) refers to stm32f10x_sdio.o(i.SDIO_ITConfig) for SDIO_ITConfig
    sdio_sdcard.o(i.SD_ReadBlock) refers to stm32f10x_sdio.o(i.SDIO_DMACmd) for SDIO_DMACmd
    sdio_sdcard.o(i.SD_ReadBlock) refers to sdio_sdcard.o(i.SD_DMA_RxConfig) for SD_DMA_RxConfig
    sdio_sdcard.o(i.SD_ReadBlock) refers to sdio_sdcard.o(.data) for TransferError
    sdio_sdcard.o(i.SD_ReadBlock) refers to sdio_sdcard.o(.bss) for SDIO_CmdInitStructure
    sdio_sdcard.o(i.SD_ReadMultiBlocks) refers to stm32f10x_sdio.o(i.SDIO_SendCommand) for SDIO_SendCommand
    sdio_sdcard.o(i.SD_ReadMultiBlocks) refers to sdio_sdcard.o(i.CmdResp1Error) for CmdResp1Error
    sdio_sdcard.o(i.SD_ReadMultiBlocks) refers to stm32f10x_sdio.o(i.SDIO_DataConfig) for SDIO_DataConfig
    sdio_sdcard.o(i.SD_ReadMultiBlocks) refers to stm32f10x_sdio.o(i.SDIO_ITConfig) for SDIO_ITConfig
    sdio_sdcard.o(i.SD_ReadMultiBlocks) refers to stm32f10x_sdio.o(i.SDIO_DMACmd) for SDIO_DMACmd
    sdio_sdcard.o(i.SD_ReadMultiBlocks) refers to sdio_sdcard.o(i.SD_DMA_RxConfig) for SD_DMA_RxConfig
    sdio_sdcard.o(i.SD_ReadMultiBlocks) refers to sdio_sdcard.o(.data) for TransferError
    sdio_sdcard.o(i.SD_ReadMultiBlocks) refers to sdio_sdcard.o(.bss) for SDIO_CmdInitStructure
    sdio_sdcard.o(i.SD_SelectDeselect) refers to stm32f10x_sdio.o(i.SDIO_SendCommand) for SDIO_SendCommand
    sdio_sdcard.o(i.SD_SelectDeselect) refers to sdio_sdcard.o(i.CmdResp1Error) for CmdResp1Error
    sdio_sdcard.o(i.SD_SelectDeselect) refers to sdio_sdcard.o(.bss) for SDIO_CmdInitStructure
    sdio_sdcard.o(i.SD_SendSDStatus) refers to stm32f10x_sdio.o(i.SDIO_GetResponse) for SDIO_GetResponse
    sdio_sdcard.o(i.SD_SendSDStatus) refers to stm32f10x_sdio.o(i.SDIO_SendCommand) for SDIO_SendCommand
    sdio_sdcard.o(i.SD_SendSDStatus) refers to sdio_sdcard.o(i.CmdResp1Error) for CmdResp1Error
    sdio_sdcard.o(i.SD_SendSDStatus) refers to stm32f10x_sdio.o(i.SDIO_DataConfig) for SDIO_DataConfig
    sdio_sdcard.o(i.SD_SendSDStatus) refers to stm32f10x_sdio.o(i.SDIO_GetFlagStatus) for SDIO_GetFlagStatus
    sdio_sdcard.o(i.SD_SendSDStatus) refers to stm32f10x_sdio.o(i.SDIO_ReadData) for SDIO_ReadData
    sdio_sdcard.o(i.SD_SendSDStatus) refers to stm32f10x_sdio.o(i.SDIO_ClearFlag) for SDIO_ClearFlag
    sdio_sdcard.o(i.SD_SendSDStatus) refers to sdio_sdcard.o(.bss) for SDIO_CmdInitStructure
    sdio_sdcard.o(i.SD_SendSDStatus) refers to sdio_sdcard.o(.data) for RCA
    sdio_sdcard.o(i.SD_SendStatus) refers to sdio_sdcard.o(i.CmdResp1Error) for CmdResp1Error
    sdio_sdcard.o(i.SD_SendStatus) refers to sdio_sdcard.o(.data) for RCA
    sdio_sdcard.o(i.SD_StopTransfer) refers to sdio_sdcard.o(i.CmdResp1Error) for CmdResp1Error
    sdio_sdcard.o(i.SD_WaitReadOperation) refers to sdio_sdcard.o(i.SD_DMAEndOfTransferStatus) for SD_DMAEndOfTransferStatus
    sdio_sdcard.o(i.SD_WaitReadOperation) refers to sdio_sdcard.o(.data) for TransferEnd
    sdio_sdcard.o(i.SD_WaitWriteOperation) refers to sdio_sdcard.o(i.SD_DMAEndOfTransferStatus) for SD_DMAEndOfTransferStatus
    sdio_sdcard.o(i.SD_WaitWriteOperation) refers to stm32f10x_sdio.o(i.SDIO_ClearFlag) for SDIO_ClearFlag
    sdio_sdcard.o(i.SD_WaitWriteOperation) refers to sdio_sdcard.o(.data) for TransferEnd
    sdio_sdcard.o(i.SD_WriteBlock) refers to stm32f10x_sdio.o(i.SDIO_SendCommand) for SDIO_SendCommand
    sdio_sdcard.o(i.SD_WriteBlock) refers to sdio_sdcard.o(i.CmdResp1Error) for CmdResp1Error
    sdio_sdcard.o(i.SD_WriteBlock) refers to stm32f10x_sdio.o(i.SDIO_DataConfig) for SDIO_DataConfig
    sdio_sdcard.o(i.SD_WriteBlock) refers to stm32f10x_sdio.o(i.SDIO_ITConfig) for SDIO_ITConfig
    sdio_sdcard.o(i.SD_WriteBlock) refers to sdio_sdcard.o(i.SD_DMA_TxConfig) for SD_DMA_TxConfig
    sdio_sdcard.o(i.SD_WriteBlock) refers to stm32f10x_sdio.o(i.SDIO_DMACmd) for SDIO_DMACmd
    sdio_sdcard.o(i.SD_WriteBlock) refers to sdio_sdcard.o(.data) for TransferError
    sdio_sdcard.o(i.SD_WriteBlock) refers to sdio_sdcard.o(.bss) for SDIO_CmdInitStructure
    sdio_sdcard.o(i.SD_WriteMultiBlocks) refers to stm32f10x_sdio.o(i.SDIO_SendCommand) for SDIO_SendCommand
    sdio_sdcard.o(i.SD_WriteMultiBlocks) refers to sdio_sdcard.o(i.CmdResp1Error) for CmdResp1Error
    sdio_sdcard.o(i.SD_WriteMultiBlocks) refers to stm32f10x_sdio.o(i.SDIO_DataConfig) for SDIO_DataConfig
    sdio_sdcard.o(i.SD_WriteMultiBlocks) refers to stm32f10x_sdio.o(i.SDIO_ITConfig) for SDIO_ITConfig
    sdio_sdcard.o(i.SD_WriteMultiBlocks) refers to stm32f10x_sdio.o(i.SDIO_DMACmd) for SDIO_DMACmd
    sdio_sdcard.o(i.SD_WriteMultiBlocks) refers to sdio_sdcard.o(i.SD_DMA_TxConfig) for SD_DMA_TxConfig
    sdio_sdcard.o(i.SD_WriteMultiBlocks) refers to sdio_sdcard.o(.data) for TransferError
    sdio_sdcard.o(i.SD_WriteMultiBlocks) refers to sdio_sdcard.o(.bss) for SDIO_CmdInitStructure
    dma.o(i.DMA1_Channel2_IRQHandler) refers to dma.o(.data) for DMA1_BUSY_FLAG
    dma.o(i.DMA1_Init) refers to misc.o(i.NVIC_Init) for NVIC_Init
    dma.o(i.DMA1_Init) refers to dma.o(.constdata) for .constdata
    dma.o(i.DMA1_SendDat) refers to dma.o(.data) for DMA1_BUSY_FLAG
    pwm.o(i.TIM4_IRQHandler) refers to stm32f10x_tim.o(i.TIM_GetITStatus) for TIM_GetITStatus
    pwm.o(i.TIM4_IRQHandler) refers to stm32f10x_tim.o(i.TIM_ClearITPendingBit) for TIM_ClearITPendingBit
    pwm.o(i.TIM4_IRQHandler) refers to pwm.o(.data) for cur_steel_tim4
    pwm.o(i.TIM4_Init) refers to stm32f10x_rcc.o(i.RCC_APB1PeriphClockCmd) for RCC_APB1PeriphClockCmd
    pwm.o(i.TIM4_Init) refers to stm32f10x_rcc.o(i.RCC_APB2PeriphClockCmd) for RCC_APB2PeriphClockCmd
    pwm.o(i.TIM4_Init) refers to stm32f10x_gpio.o(i.GPIO_Init) for GPIO_Init
    pwm.o(i.TIM4_Init) refers to stm32f10x_tim.o(i.TIM_TimeBaseInit) for TIM_TimeBaseInit
    pwm.o(i.TIM4_Init) refers to stm32f10x_tim.o(i.TIM_ITConfig) for TIM_ITConfig
    pwm.o(i.TIM4_Init) refers to misc.o(i.NVIC_Init) for NVIC_Init
    pwm.o(i.TIM4_Init) refers to stm32f10x_tim.o(i.TIM_OC1Init) for TIM_OC1Init
    pwm.o(i.TIM4_Init) refers to stm32f10x_tim.o(i.TIM_OC2Init) for TIM_OC2Init
    pwm.o(i.TIM4_Init) refers to stm32f10x_tim.o(i.TIM_OC3Init) for TIM_OC3Init
    pwm.o(i.TIM4_Init) refers to stm32f10x_tim.o(i.TIM_Cmd) for TIM_Cmd
    pwm.o(i.TIM4_Init) refers to intconfig.o(.data) for TIM4_NVIC_CONFIG
    pwm.o(i.steel_pst) refers to dflt_clz.o(x$fpl$dfltu) for __aeabi_ui2d
    pwm.o(i.steel_pst) refers to ddiv.o(x$fpl$ddiv) for __aeabi_ddiv
    pwm.o(i.steel_pst) refers to dmul.o(x$fpl$dmul) for __aeabi_dmul
    pwm.o(i.steel_pst) refers to daddsub_clz.o(x$fpl$dadd) for __aeabi_dadd
    pwm.o(i.steel_pst) refers to dfixu.o(x$fpl$dfixu) for __aeabi_d2uiz
    pwm.o(i.steel_pst) refers to pwm.o(.data) for steel1_pst
    key.o(i.EXTI1_IRQHandler) refers to _printf_percent.o(.ARM.Collect$$_printf_percent$$00000000) for _printf_percent
    key.o(i.EXTI1_IRQHandler) refers to delay.o(i.delay_ms) for delay_ms
    key.o(i.EXTI1_IRQHandler) refers to noretval__2sprintf.o(.text) for __2sprintf
    key.o(i.EXTI1_IRQHandler) refers to strlen.o(.text) for strlen
    key.o(i.EXTI1_IRQHandler) refers to stm32f10x_exti.o(i.EXTI_ClearITPendingBit) for EXTI_ClearITPendingBit
    key.o(i.EXTI1_IRQHandler) refers to protocal.o(.bss) for Command_Buffer
    key.o(i.EXTI1_IRQHandler) refers to protocal.o(.data) for GetProtocal
    key.o(i.EXTIX_Init) refers to stm32f10x_rcc.o(i.RCC_APB2PeriphClockCmd) for RCC_APB2PeriphClockCmd
    key.o(i.EXTIX_Init) refers to stm32f10x_gpio.o(i.GPIO_EXTILineConfig) for GPIO_EXTILineConfig
    key.o(i.EXTIX_Init) refers to stm32f10x_exti.o(i.EXTI_Init) for EXTI_Init
    key.o(i.EXTIX_Init) refers to misc.o(i.NVIC_Init) for NVIC_Init
    key.o(i.EXTIX_Init) refers to intconfig.o(.data) for EXIT1_NVIC_CONFIG
    key.o(i.key_init) refers to key.o(i.EXTIX_Init) for EXTIX_Init
    action.o(i.Arm_down) refers to ax12.o(i.axGetPosition) for axGetPosition
    action.o(i.Arm_down) refers to ax12.o(i.axSendPosition) for axSendPosition
    action.o(i.Arm_down) refers to delay.o(i.delay_ms) for delay_ms
    action.o(i.Arm_lean_backward) refers to ax12.o(i.axGetPosition) for axGetPosition
    action.o(i.Arm_lean_backward) refers to delay.o(i.delay_ms) for delay_ms
    action.o(i.Arm_lean_backward) refers to ax12.o(i.axSendPosition) for axSendPosition
    action.o(i.Arm_lean_forward) refers to ax12.o(i.axGetPosition) for axGetPosition
    action.o(i.Arm_lean_forward) refers to delay.o(i.delay_ms) for delay_ms
    action.o(i.Arm_lean_forward) refers to ax12.o(i.axSendPosition) for axSendPosition
    action.o(i.Arm_turn_left) refers to ax12.o(i.axGetPosition) for axGetPosition
    action.o(i.Arm_turn_left) refers to ax12.o(i.axSendPosition) for axSendPosition
    action.o(i.Arm_turn_left) refers to delay.o(i.delay_ms) for delay_ms
    action.o(i.Arm_turn_right) refers to ax12.o(i.axGetPosition) for axGetPosition
    action.o(i.Arm_turn_right) refers to ax12.o(i.axSendPosition) for axSendPosition
    action.o(i.Arm_turn_right) refers to delay.o(i.delay_ms) for delay_ms
    action.o(i.Arm_up) refers to ax12.o(i.axGetPosition) for axGetPosition
    action.o(i.Arm_up) refers to ax12.o(i.axSendPosition) for axSendPosition
    action.o(i.Arm_up) refers to delay.o(i.delay_ms) for delay_ms
    action.o(i.Come_up) refers to ax12.o(i.axAllPosition) for axAllPosition
    action.o(i.Come_up) refers to delay.o(i.delay_ms) for delay_ms
    action.o(i.Come_up) refers to config.o(.data) for InitialPosition
    action.o(i.Dive) refers to ax12.o(i.axAllPosition) for axAllPosition
    action.o(i.Dive) refers to delay.o(i.delay_ms) for delay_ms
    action.o(i.Dive) refers to config.o(.data) for InitialPosition
    action.o(i.ExAction) refers to action.o(i.Come_up) for Come_up
    action.o(i.ExAction) refers to action.o(i.Dive) for Dive
    action.o(i.ExAction) refers to action.o(i.Turn_left) for Turn_left
    action.o(i.ExAction) refers to action.o(i.Turn_right) for Turn_right
    action.o(i.ExAction) refers to action.o(i.Go_forward) for Go_forward
    action.o(i.ExAction) refers to action.o(i.Shou_qi) for Shou_qi
    action.o(i.ExAction) refers to action.o(i.Arm_up) for Arm_up
    action.o(i.ExAction) refers to action.o(i.Arm_down) for Arm_down
    action.o(i.ExAction) refers to action.o(i.Arm_turn_left) for Arm_turn_left
    action.o(i.ExAction) refers to action.o(i.Arm_turn_right) for Arm_turn_right
    action.o(i.ExAction) refers to action.o(i.Arm_lean_forward) for Arm_lean_forward
    action.o(i.ExAction) refers to action.o(i.Arm_lean_backward) for Arm_lean_backward
    action.o(i.ExAction) refers to action.o(.data) for state
    action.o(i.Go_forward) refers to faddsub_clz.o(x$fpl$fadd) for __aeabi_fadd
    action.o(i.Go_forward) refers to fflt_clz.o(x$fpl$ffltu) for __aeabi_ui2f
    action.o(i.Go_forward) refers to fmul.o(x$fpl$fmul) for __aeabi_fmul
    action.o(i.Go_forward) refers to f2d.o(x$fpl$f2d) for __aeabi_f2d
    action.o(i.Go_forward) refers to sin.o(i.sin) for sin
    action.o(i.Go_forward) refers to dmul.o(x$fpl$dmul) for __aeabi_dmul
    action.o(i.Go_forward) refers to daddsub_clz.o(x$fpl$dadd) for __aeabi_dadd
    action.o(i.Go_forward) refers to d2f.o(x$fpl$d2f) for __aeabi_d2f
    action.o(i.Go_forward) refers to faddsub_clz.o(x$fpl$fsub) for __aeabi_fsub
    action.o(i.Go_forward) refers to faddsub_clz.o(x$fpl$frsb) for __aeabi_frsub
    action.o(i.Go_forward) refers to ffixu.o(x$fpl$ffixu) for __aeabi_f2uiz
    action.o(i.Go_forward) refers to ax12.o(i.axAllPosition) for axAllPosition
    action.o(i.Go_forward) refers to delay.o(i.delay_ms) for delay_ms
    action.o(i.Go_forward) refers to action.o(.data) for stop
    action.o(i.Init_Pos) refers to ax12.o(i.axAllPosition) for axAllPosition
    action.o(i.Init_Pos) refers to config.o(.data) for InitialPosition
    action.o(i.Shou_qi) refers to ax12.o(i.axAllPosition) for axAllPosition
    action.o(i.Shou_qi) refers to config.o(.data) for shouqi
    action.o(i.Speed_down) refers to f2d.o(x$fpl$f2d) for __aeabi_f2d
    action.o(i.Speed_down) refers to daddsub_clz.o(x$fpl$dsub) for __aeabi_dsub
    action.o(i.Speed_down) refers to d2f.o(x$fpl$d2f) for __aeabi_d2f
    action.o(i.Speed_down) refers to dleqf.o(x$fpl$dleqf) for __aeabi_cdcmple
    action.o(i.Speed_down) refers to drleqf.o(x$fpl$drleqf) for __aeabi_cdrcmple
    action.o(i.Speed_down) refers to action.o(.data) for speed
    action.o(i.Speed_up) refers to f2d.o(x$fpl$f2d) for __aeabi_f2d
    action.o(i.Speed_up) refers to daddsub_clz.o(x$fpl$dadd) for __aeabi_dadd
    action.o(i.Speed_up) refers to d2f.o(x$fpl$d2f) for __aeabi_d2f
    action.o(i.Speed_up) refers to dleqf.o(x$fpl$dleqf) for __aeabi_cdcmple
    action.o(i.Speed_up) refers to drleqf.o(x$fpl$drleqf) for __aeabi_cdrcmple
    action.o(i.Speed_up) refers to action.o(.data) for speed
    action.o(i.Turn_left) refers to faddsub_clz.o(x$fpl$fadd) for __aeabi_fadd
    action.o(i.Turn_left) refers to fflt_clz.o(x$fpl$ffltu) for __aeabi_ui2f
    action.o(i.Turn_left) refers to fmul.o(x$fpl$fmul) for __aeabi_fmul
    action.o(i.Turn_left) refers to f2d.o(x$fpl$f2d) for __aeabi_f2d
    action.o(i.Turn_left) refers to sin.o(i.sin) for sin
    action.o(i.Turn_left) refers to dmul.o(x$fpl$dmul) for __aeabi_dmul
    action.o(i.Turn_left) refers to daddsub_clz.o(x$fpl$dadd) for __aeabi_dadd
    action.o(i.Turn_left) refers to d2f.o(x$fpl$d2f) for __aeabi_d2f
    action.o(i.Turn_left) refers to faddsub_clz.o(x$fpl$fsub) for __aeabi_fsub
    action.o(i.Turn_left) refers to faddsub_clz.o(x$fpl$frsb) for __aeabi_frsub
    action.o(i.Turn_left) refers to ffixu.o(x$fpl$ffixu) for __aeabi_f2uiz
    action.o(i.Turn_left) refers to ax12.o(i.axAllPosition) for axAllPosition
    action.o(i.Turn_left) refers to delay.o(i.delay_ms) for delay_ms
    action.o(i.Turn_left) refers to action.o(.data) for stop
    action.o(i.Turn_right) refers to faddsub_clz.o(x$fpl$fadd) for __aeabi_fadd
    action.o(i.Turn_right) refers to fflt_clz.o(x$fpl$ffltu) for __aeabi_ui2f
    action.o(i.Turn_right) refers to fmul.o(x$fpl$fmul) for __aeabi_fmul
    action.o(i.Turn_right) refers to f2d.o(x$fpl$f2d) for __aeabi_f2d
    action.o(i.Turn_right) refers to sin.o(i.sin) for sin
    action.o(i.Turn_right) refers to dmul.o(x$fpl$dmul) for __aeabi_dmul
    action.o(i.Turn_right) refers to daddsub_clz.o(x$fpl$dadd) for __aeabi_dadd
    action.o(i.Turn_right) refers to d2f.o(x$fpl$d2f) for __aeabi_d2f
    action.o(i.Turn_right) refers to faddsub_clz.o(x$fpl$fsub) for __aeabi_fsub
    action.o(i.Turn_right) refers to faddsub_clz.o(x$fpl$frsb) for __aeabi_frsub
    action.o(i.Turn_right) refers to ffixu.o(x$fpl$ffixu) for __aeabi_f2uiz
    action.o(i.Turn_right) refers to ax12.o(i.axAllPosition) for axAllPosition
    action.o(i.Turn_right) refers to delay.o(i.delay_ms) for delay_ms
    action.o(i.Turn_right) refers to action.o(.data) for stop
    diskio.o(i.disk_initialize) refers to sdio_sdcard.o(i.SD_Init) for SD_Init
    diskio.o(i.disk_read) refers to sdio_sdcard.o(i.SD_ReadBlock) for SD_ReadBlock
    diskio.o(i.disk_read) refers to sdio_sdcard.o(i.SD_WaitReadOperation) for SD_WaitReadOperation
    diskio.o(i.disk_read) refers to sdio_sdcard.o(i.SD_GetStatus) for SD_GetStatus
    diskio.o(i.disk_write) refers to sdio_sdcard.o(i.SD_WriteMultiBlocks) for SD_WriteMultiBlocks
    diskio.o(i.disk_write) refers to sdio_sdcard.o(i.SD_WaitWriteOperation) for SD_WaitWriteOperation
    diskio.o(i.disk_write) refers to sdio_sdcard.o(i.SD_GetStatus) for SD_GetStatus
    diskio.o(i.disk_write) refers to sdio_sdcard.o(i.SD_WriteBlock) for SD_WriteBlock
    ff.o(i.check_fs) refers to ff.o(i.move_window) for move_window
    ff.o(i.check_fs) refers to ff.o(i.ld_word) for ld_word
    ff.o(i.check_fs) refers to ff.o(i.ld_dword) for ld_dword
    ff.o(i.cmp_lfn) refers to ff.o(i.ld_word) for ld_word
    ff.o(i.cmp_lfn) refers to ccsbcs.o(i.ff_wtoupper) for ff_wtoupper
    ff.o(i.cmp_lfn) refers to ff.o(.constdata) for LfnOfs
    ff.o(i.create_chain) refers to ff.o(i.get_fat) for get_fat
    ff.o(i.create_chain) refers to ff.o(i.put_fat) for put_fat
    ff.o(i.create_name) refers to ccsbcs.o(i.ff_convert) for ff_convert
    ff.o(i.create_name) refers to ff.o(i.chk_chr) for chk_chr
    ff.o(i.create_name) refers to ff.o(i.mem_set) for mem_set
    ff.o(i.create_name) refers to ff.o(.constdata) for ExCvt
    ff.o(i.dir_alloc) refers to ff.o(i.dir_sdi) for dir_sdi
    ff.o(i.dir_alloc) refers to ff.o(i.move_window) for move_window
    ff.o(i.dir_alloc) refers to ff.o(i.dir_next) for dir_next
    ff.o(i.dir_find) refers to ff.o(i.dir_sdi) for dir_sdi
    ff.o(i.dir_find) refers to ff.o(i.move_window) for move_window
    ff.o(i.dir_find) refers to ff.o(i.cmp_lfn) for cmp_lfn
    ff.o(i.dir_find) refers to ff.o(i.sum_sfn) for sum_sfn
    ff.o(i.dir_find) refers to ff.o(i.mem_cmp) for mem_cmp
    ff.o(i.dir_find) refers to ff.o(i.dir_next) for dir_next
    ff.o(i.dir_next) refers to ff.o(i.get_fat) for get_fat
    ff.o(i.dir_next) refers to ff.o(i.create_chain) for create_chain
    ff.o(i.dir_next) refers to ff.o(i.sync_window) for sync_window
    ff.o(i.dir_next) refers to ff.o(i.mem_set) for mem_set
    ff.o(i.dir_next) refers to ff.o(i.clust2sect) for clust2sect
    ff.o(i.dir_read) refers to ff.o(i.move_window) for move_window
    ff.o(i.dir_read) refers to ff.o(i.pick_lfn) for pick_lfn
    ff.o(i.dir_read) refers to ff.o(i.sum_sfn) for sum_sfn
    ff.o(i.dir_read) refers to ff.o(i.dir_next) for dir_next
    ff.o(i.dir_register) refers to ff.o(i.mem_cpy) for mem_cpy
    ff.o(i.dir_register) refers to ff.o(i.gen_numname) for gen_numname
    ff.o(i.dir_register) refers to ff.o(i.dir_find) for dir_find
    ff.o(i.dir_register) refers to ff.o(i.dir_alloc) for dir_alloc
    ff.o(i.dir_register) refers to ff.o(i.dir_sdi) for dir_sdi
    ff.o(i.dir_register) refers to ff.o(i.sum_sfn) for sum_sfn
    ff.o(i.dir_register) refers to ff.o(i.move_window) for move_window
    ff.o(i.dir_register) refers to ff.o(i.put_lfn) for put_lfn
    ff.o(i.dir_register) refers to ff.o(i.dir_next) for dir_next
    ff.o(i.dir_register) refers to ff.o(i.mem_set) for mem_set
    ff.o(i.dir_remove) refers to ff.o(i.dir_sdi) for dir_sdi
    ff.o(i.dir_remove) refers to ff.o(i.move_window) for move_window
    ff.o(i.dir_remove) refers to ff.o(i.dir_next) for dir_next
    ff.o(i.dir_sdi) refers to ff.o(i.get_fat) for get_fat
    ff.o(i.dir_sdi) refers to ff.o(i.clust2sect) for clust2sect
    ff.o(i.f_close) refers to ff.o(i.f_sync) for f_sync
    ff.o(i.f_close) refers to ff.o(i.validate) for validate
    ff.o(i.f_closedir) refers to ff.o(i.validate) for validate
    ff.o(i.f_getfree) refers to ff.o(i.find_volume) for find_volume
    ff.o(i.f_getfree) refers to ff.o(i.get_fat) for get_fat
    ff.o(i.f_getfree) refers to ff.o(i.move_window) for move_window
    ff.o(i.f_getfree) refers to ff.o(i.ld_word) for ld_word
    ff.o(i.f_getfree) refers to ff.o(i.ld_dword) for ld_dword
    ff.o(i.f_gets) refers to ff.o(i.f_read) for f_read
    ff.o(i.f_lseek) refers to ff.o(i.validate) for validate
    ff.o(i.f_lseek) refers to ff.o(i.create_chain) for create_chain
    ff.o(i.f_lseek) refers to ff.o(i.get_fat) for get_fat
    ff.o(i.f_lseek) refers to ff.o(i.clust2sect) for clust2sect
    ff.o(i.f_lseek) refers to diskio.o(i.disk_write) for disk_write
    ff.o(i.f_lseek) refers to diskio.o(i.disk_read) for disk_read
    ff.o(i.f_mkdir) refers to ff.o(i.find_volume) for find_volume
    ff.o(i.f_mkdir) refers to ff.o(i.follow_path) for follow_path
    ff.o(i.f_mkdir) refers to ff.o(i.create_chain) for create_chain
    ff.o(i.f_mkdir) refers to ff.o(i.sync_window) for sync_window
    ff.o(i.f_mkdir) refers to diskio.o(i.get_fattime) for get_fattime
    ff.o(i.f_mkdir) refers to ff.o(i.clust2sect) for clust2sect
    ff.o(i.f_mkdir) refers to ff.o(i.mem_set) for mem_set
    ff.o(i.f_mkdir) refers to ff.o(i.st_dword) for st_dword
    ff.o(i.f_mkdir) refers to ff.o(i.st_clust) for st_clust
    ff.o(i.f_mkdir) refers to ff.o(i.mem_cpy) for mem_cpy
    ff.o(i.f_mkdir) refers to ff.o(i.dir_register) for dir_register
    ff.o(i.f_mkdir) refers to ff.o(i.sync_fs) for sync_fs
    ff.o(i.f_mkdir) refers to ff.o(i.remove_chain) for remove_chain
    ff.o(i.f_mkfs) refers to ff.o(i.get_ldnumber) for get_ldnumber
    ff.o(i.f_mkfs) refers to diskio.o(i.disk_initialize) for disk_initialize
    ff.o(i.f_mkfs) refers to diskio.o(i.disk_ioctl) for disk_ioctl
    ff.o(i.f_mkfs) refers to ff.o(i.mem_set) for mem_set
    ff.o(i.f_mkfs) refers to ff.o(i.mem_cpy) for mem_cpy
    ff.o(i.f_mkfs) refers to ff.o(i.st_word) for st_word
    ff.o(i.f_mkfs) refers to ff.o(i.st_dword) for st_dword
    ff.o(i.f_mkfs) refers to diskio.o(i.get_fattime) for get_fattime
    ff.o(i.f_mkfs) refers to ff.o(.data) for FatFs
    ff.o(i.f_mkfs) refers to ff.o(.constdata) for cst32
    ff.o(i.f_mkfs) refers to diskio.o(i.disk_write) for disk_write
    ff.o(i.f_mount) refers to ff.o(i.get_ldnumber) for get_ldnumber
    ff.o(i.f_mount) refers to ff.o(i.find_volume) for find_volume
    ff.o(i.f_mount) refers to ff.o(.data) for FatFs
    ff.o(i.f_open) refers to ff.o(i.find_volume) for find_volume
    ff.o(i.f_open) refers to ff.o(i.follow_path) for follow_path
    ff.o(i.f_open) refers to ff.o(i.dir_register) for dir_register
    ff.o(i.f_open) refers to diskio.o(i.get_fattime) for get_fattime
    ff.o(i.f_open) refers to ff.o(i.st_dword) for st_dword
    ff.o(i.f_open) refers to ff.o(i.ld_clust) for ld_clust
    ff.o(i.f_open) refers to ff.o(i.st_clust) for st_clust
    ff.o(i.f_open) refers to ff.o(i.remove_chain) for remove_chain
    ff.o(i.f_open) refers to ff.o(i.move_window) for move_window
    ff.o(i.f_open) refers to ff.o(i.ld_dword) for ld_dword
    ff.o(i.f_open) refers to ff.o(i.mem_set) for mem_set
    ff.o(i.f_open) refers to ff.o(i.get_fat) for get_fat
    ff.o(i.f_open) refers to ff.o(i.clust2sect) for clust2sect
    ff.o(i.f_open) refers to diskio.o(i.disk_read) for disk_read
    ff.o(i.f_opendir) refers to ff.o(i.find_volume) for find_volume
    ff.o(i.f_opendir) refers to ff.o(i.follow_path) for follow_path
    ff.o(i.f_opendir) refers to ff.o(i.ld_clust) for ld_clust
    ff.o(i.f_opendir) refers to ff.o(i.dir_sdi) for dir_sdi
    ff.o(i.f_printf) refers to ff.o(i.putc_init) for putc_init
    ff.o(i.f_printf) refers to ff.o(i.putc_bfd) for putc_bfd
    ff.o(i.f_printf) refers to ff.o(i.putc_flush) for putc_flush
    ff.o(i.f_putc) refers to ff.o(i.putc_init) for putc_init
    ff.o(i.f_putc) refers to ff.o(i.putc_bfd) for putc_bfd
    ff.o(i.f_putc) refers to ff.o(i.putc_flush) for putc_flush
    ff.o(i.f_puts) refers to ff.o(i.putc_init) for putc_init
    ff.o(i.f_puts) refers to ff.o(i.putc_bfd) for putc_bfd
    ff.o(i.f_puts) refers to ff.o(i.putc_flush) for putc_flush
    ff.o(i.f_read) refers to ff.o(i.validate) for validate
    ff.o(i.f_read) refers to ff.o(i.get_fat) for get_fat
    ff.o(i.f_read) refers to ff.o(i.clust2sect) for clust2sect
    ff.o(i.f_read) refers to diskio.o(i.disk_read) for disk_read
    ff.o(i.f_read) refers to ff.o(i.mem_cpy) for mem_cpy
    ff.o(i.f_read) refers to diskio.o(i.disk_write) for disk_write
    ff.o(i.f_readdir) refers to ff.o(i.validate) for validate
    ff.o(i.f_readdir) refers to ff.o(i.dir_sdi) for dir_sdi
    ff.o(i.f_readdir) refers to ff.o(i.dir_read) for dir_read
    ff.o(i.f_readdir) refers to ff.o(i.get_fileinfo) for get_fileinfo
    ff.o(i.f_readdir) refers to ff.o(i.dir_next) for dir_next
    ff.o(i.f_rename) refers to ff.o(i.get_ldnumber) for get_ldnumber
    ff.o(i.f_rename) refers to ff.o(i.find_volume) for find_volume
    ff.o(i.f_rename) refers to ff.o(i.follow_path) for follow_path
    ff.o(i.f_rename) refers to ff.o(i.mem_cpy) for mem_cpy
    ff.o(i.f_rename) refers to ff.o(i.dir_register) for dir_register
    ff.o(i.f_rename) refers to ff.o(i.ld_clust) for ld_clust
    ff.o(i.f_rename) refers to ff.o(i.clust2sect) for clust2sect
    ff.o(i.f_rename) refers to ff.o(i.move_window) for move_window
    ff.o(i.f_rename) refers to ff.o(i.st_clust) for st_clust
    ff.o(i.f_rename) refers to ff.o(i.dir_remove) for dir_remove
    ff.o(i.f_rename) refers to ff.o(i.sync_fs) for sync_fs
    ff.o(i.f_stat) refers to ff.o(i.find_volume) for find_volume
    ff.o(i.f_stat) refers to ff.o(i.follow_path) for follow_path
    ff.o(i.f_stat) refers to ff.o(i.get_fileinfo) for get_fileinfo
    ff.o(i.f_sync) refers to ff.o(i.validate) for validate
    ff.o(i.f_sync) refers to diskio.o(i.disk_write) for disk_write
    ff.o(i.f_sync) refers to diskio.o(i.get_fattime) for get_fattime
    ff.o(i.f_sync) refers to ff.o(i.move_window) for move_window
    ff.o(i.f_sync) refers to ff.o(i.st_clust) for st_clust
    ff.o(i.f_sync) refers to ff.o(i.st_dword) for st_dword
    ff.o(i.f_sync) refers to ff.o(i.st_word) for st_word
    ff.o(i.f_sync) refers to ff.o(i.sync_fs) for sync_fs
    ff.o(i.f_truncate) refers to ff.o(i.validate) for validate
    ff.o(i.f_truncate) refers to ff.o(i.remove_chain) for remove_chain
    ff.o(i.f_truncate) refers to ff.o(i.get_fat) for get_fat
    ff.o(i.f_truncate) refers to diskio.o(i.disk_write) for disk_write
    ff.o(i.f_unlink) refers to ff.o(i.find_volume) for find_volume
    ff.o(i.f_unlink) refers to ff.o(i.follow_path) for follow_path
    ff.o(i.f_unlink) refers to ff.o(i.ld_clust) for ld_clust
    ff.o(i.f_unlink) refers to ff.o(i.dir_sdi) for dir_sdi
    ff.o(i.f_unlink) refers to ff.o(i.dir_read) for dir_read
    ff.o(i.f_unlink) refers to ff.o(i.dir_remove) for dir_remove
    ff.o(i.f_unlink) refers to ff.o(i.remove_chain) for remove_chain
    ff.o(i.f_unlink) refers to ff.o(i.sync_fs) for sync_fs
    ff.o(i.f_write) refers to ff.o(i.validate) for validate
    ff.o(i.f_write) refers to ff.o(i.create_chain) for create_chain
    ff.o(i.f_write) refers to diskio.o(i.disk_write) for disk_write
    ff.o(i.f_write) refers to ff.o(i.clust2sect) for clust2sect
    ff.o(i.f_write) refers to ff.o(i.mem_cpy) for mem_cpy
    ff.o(i.f_write) refers to diskio.o(i.disk_read) for disk_read
    ff.o(i.find_volume) refers to ff.o(i.get_ldnumber) for get_ldnumber
    ff.o(i.find_volume) refers to diskio.o(i.disk_status) for disk_status
    ff.o(i.find_volume) refers to diskio.o(i.disk_initialize) for disk_initialize
    ff.o(i.find_volume) refers to ff.o(i.check_fs) for check_fs
    ff.o(i.find_volume) refers to ff.o(i.ld_dword) for ld_dword
    ff.o(i.find_volume) refers to ff.o(i.ld_word) for ld_word
    ff.o(i.find_volume) refers to ff.o(i.move_window) for move_window
    ff.o(i.find_volume) refers to ff.o(.data) for FatFs
    ff.o(i.find_volume) refers to ff.o(.bss) for LfnBuf
    ff.o(i.follow_path) refers to ff.o(i.dir_sdi) for dir_sdi
    ff.o(i.follow_path) refers to ff.o(i.create_name) for create_name
    ff.o(i.follow_path) refers to ff.o(i.dir_find) for dir_find
    ff.o(i.follow_path) refers to ff.o(i.ld_clust) for ld_clust
    ff.o(i.gen_numname) refers to ff.o(i.mem_cpy) for mem_cpy
    ff.o(i.get_fat) refers to ff.o(i.move_window) for move_window
    ff.o(i.get_fat) refers to ff.o(i.ld_word) for ld_word
    ff.o(i.get_fat) refers to ff.o(i.ld_dword) for ld_dword
    ff.o(i.get_fileinfo) refers to ccsbcs.o(i.ff_convert) for ff_convert
    ff.o(i.get_fileinfo) refers to ff.o(i.ld_dword) for ld_dword
    ff.o(i.ld_clust) refers to ff.o(i.ld_word) for ld_word
    ff.o(i.move_window) refers to ff.o(i.sync_window) for sync_window
    ff.o(i.move_window) refers to diskio.o(i.disk_read) for disk_read
    ff.o(i.pick_lfn) refers to ff.o(i.ld_word) for ld_word
    ff.o(i.pick_lfn) refers to ff.o(.constdata) for LfnOfs
    ff.o(i.put_fat) refers to ff.o(i.move_window) for move_window
    ff.o(i.put_fat) refers to ff.o(i.st_word) for st_word
    ff.o(i.put_fat) refers to ff.o(i.ld_dword) for ld_dword
    ff.o(i.put_fat) refers to ff.o(i.st_dword) for st_dword
    ff.o(i.put_lfn) refers to ff.o(i.st_word) for st_word
    ff.o(i.put_lfn) refers to ff.o(.constdata) for LfnOfs
    ff.o(i.putc_bfd) refers to ff.o(i.f_write) for f_write
    ff.o(i.putc_flush) refers to ff.o(i.f_write) for f_write
    ff.o(i.remove_chain) refers to ff.o(i.put_fat) for put_fat
    ff.o(i.remove_chain) refers to ff.o(i.get_fat) for get_fat
    ff.o(i.st_clust) refers to ff.o(i.st_word) for st_word
    ff.o(i.sync_fs) refers to ff.o(i.sync_window) for sync_window
    ff.o(i.sync_fs) refers to ff.o(i.mem_set) for mem_set
    ff.o(i.sync_fs) refers to ff.o(i.st_word) for st_word
    ff.o(i.sync_fs) refers to ff.o(i.st_dword) for st_dword
    ff.o(i.sync_fs) refers to diskio.o(i.disk_write) for disk_write
    ff.o(i.sync_fs) refers to diskio.o(i.disk_ioctl) for disk_ioctl
    ff.o(i.sync_window) refers to diskio.o(i.disk_write) for disk_write
    ff.o(i.validate) refers to diskio.o(i.disk_status) for disk_status
    ccsbcs.o(i.ff_convert) refers to ccsbcs.o(.constdata) for Tbl
    ccsbcs.o(i.ff_wtoupper) refers to ccsbcs.o(.constdata) for cvt1
    ax12.o(i.axAllPosition) refers to ax12.o(i.axSendPosition) for axSendPosition
    ax12.o(i.axAnalizePosition) refers to ax12.o(i.LobotCheckSum) for LobotCheckSum
    ax12.o(i.axFlexible) refers to ax12.o(i.axSendPack) for axSendPack
    ax12.o(i.axFlexible) refers to delay.o(i.delay_ms) for delay_ms
    ax12.o(i.axGetPosition) refers to ax12.o(i.axSendPack) for axSendPack
    ax12.o(i.axGetPosition) refers to delay.o(i.delay_ms) for delay_ms
    ax12.o(i.axGetPosition) refers to ax12.o(i.axAnalizePosition) for axAnalizePosition
    ax12.o(i.axGetPosition) refers to usart3.o(.data) for u3len
    ax12.o(i.axGetPosition) refers to usart3.o(.bss) for u3buf
    ax12.o(i.axModifyID) refers to ax12.o(i.axSendPack) for axSendPack
    ax12.o(i.axPing) refers to ax12.o(i.axSendPack) for axSendPack
    ax12.o(i.axPing) refers to delay.o(i.delay_ms) for delay_ms
    ax12.o(i.axPing) refers to usart3.o(.data) for u3len
    ax12.o(i.axReset) refers to ax12.o(i.axSendPack) for axSendPack
    ax12.o(i.axReset) refers to delay.o(i.delay_ms) for delay_ms
    ax12.o(i.axSendPack) refers to rt_memclr_w.o(.text) for __aeabi_memclr4
    ax12.o(i.axSendPack) refers to ax12.o(i.LobotCheckSum) for LobotCheckSum
    ax12.o(i.axSendPack) refers to usart_tren.o(i.usart_modetx) for usart_modetx
    ax12.o(i.axSendPack) refers to ax12.o(i.ax_usartx_senddat) for ax_usartx_senddat
    ax12.o(i.axSendPack) refers to usart_tren.o(i.usart_moderx) for usart_moderx
    ax12.o(i.axSendPosition) refers to ax12.o(i.axSendPack) for axSendPack
    ax12.o(i.axSendPosition) refers to delay.o(i.delay_ms) for delay_ms
    ax12.o(i.axTorque) refers to ax12.o(i.axSendPack) for axSendPack
    ax12.o(i.ax_usartx_senddat) refers to usart3.o(i.usart3_senddat) for usart3_senddat
    ax12.o(i.lx_usartx_senddat) refers to usart3.o(i.usart3_senddat) for usart3_senddat
    jy61.o(i.jyStateIterator) refers to dflt_clz.o(x$fpl$dflt) for __aeabi_i2d
    jy61.o(i.jyStateIterator) refers to dmul.o(x$fpl$dmul) for __aeabi_dmul
    jy61.o(i.jyStateIterator) refers to ddiv.o(x$fpl$ddiv) for __aeabi_ddiv
    jy61.o(i.jyStateIterator) refers to dflt_clz.o(x$fpl$dfltu) for __aeabi_ui2d
    jy61.o(i.jyStateIterator) refers to jy61.o(.data) for jysta
    jy61.o(i.jyStateIterator) refers to jy61.o(.bss) for pstdata
    jy61.o(i.jyStateIterator) refers to usart2.o(.data) for u2len
    protocal.o(i.MESSAGE_Reply) refers to rt_memclr_w.o(.text) for __aeabi_memclr4
    protocal.o(i.MESSAGE_Reply) refers to protocal.o(i.ptc_usartx_senddat) for ptc_usartx_senddat
    protocal.o(i.MESSAGE_Reply) refers to protocal.o(.bss) for Command_Buffer
    protocal.o(i.Reply_GetServoConnection) refers to rt_memcpy_w.o(.text) for __aeabi_memcpy4
    protocal.o(i.Reply_GetServoConnection) refers to protocal.o(i.MESSAGE_Reply) for MESSAGE_Reply
    protocal.o(i.Reply_GetServoConnection) refers to file.o(i.SendFileCommand) for SendFileCommand
    protocal.o(i.Reply_GetServoConnection) refers to strcat.o(.text) for strcat
    protocal.o(i.Reply_GetServoConnection) refers to strlen.o(.text) for strlen
    protocal.o(i.Reply_GetServoConnection) refers to config.o(.data) for InitialPosition
    protocal.o(i.Reply_GetServoConnection) refers to config.o(.constdata) for SERVO_NAME
    protocal.o(i.pctCommandClassify) refers to protocal.o(i.Reply_GetServoConnection) for Reply_GetServoConnection
    protocal.o(i.pctCommandClassify) refers to protocal.o(i.MESSAGE_Reply) for MESSAGE_Reply
    protocal.o(i.pctCommandClassify) refers to ax12.o(i.axGetPosition) for axGetPosition
    protocal.o(i.pctCommandClassify) refers to file.o(i.SendFileCommand) for SendFileCommand
    protocal.o(i.pctCommandClassify) refers to file.o(i.EnableAllServo) for EnableAllServo
    protocal.o(i.pctCommandClassify) refers to ax12.o(i.axTorque) for axTorque
    protocal.o(i.pctCommandClassify) refers to file.o(i.UploadActionName_Function) for UploadActionName_Function
    protocal.o(i.pctCommandClassify) refers to file.o(i.DownloadActionFile_Function) for DownloadActionFile_Function
    protocal.o(i.pctCommandClassify) refers to file.o(i.ExecuteActionFile_Function) for ExecuteActionFile_Function
    protocal.o(i.pctCommandClassify) refers to file.o(i.DownloadSequence_Function) for DownloadSequence_Function
    protocal.o(i.pctCommandClassify) refers to file.o(i.ExecuteSequenceFile_Function) for ExecuteSequenceFile_Function
    protocal.o(i.pctCommandClassify) refers to file.o(i.MoveServo_Function) for MoveServo_Function
    protocal.o(i.pctCommandClassify) refers to file.o(i.DeleteActionFile_Function) for DeleteActionFile_Function
    protocal.o(i.pctCommandClassify) refers to file.o(i.UploadOrderName_Function) for UploadOrderName_Function
    protocal.o(i.pctCommandClassify) refers to file.o(i.UploadOrderFile_Function) for UploadOrderFile_Function
    protocal.o(i.pctCommandClassify) refers to file.o(i.DeleteOrderFile_Function) for DeleteOrderFile_Function
    protocal.o(i.pctCommandClassify) refers to protocal.o(.bss) for Ax_Position
    protocal.o(i.pctCommandClassify) refers to protocal.o(.data) for ax_receive
    protocal.o(i.ptcClearCmdbuf) refers to rt_memclr.o(.text) for __aeabi_memclr
    protocal.o(i.ptcGetCommand) refers to protocal.o(i.MESSAGE_Reply) for MESSAGE_Reply
    protocal.o(i.ptcGetCommand) refers to protocal.o(.data) for receive_state
    protocal.o(i.ptcGetCommand) refers to protocal.o(.bss) for Command_Buffer
    protocal.o(i.ptc_usartx_senddat) refers to usart1.o(i.usart1_senddat) for usart1_senddat
    file.o(i.DeleteActionFile_Function) refers to rt_memcpy_w.o(.text) for __aeabi_memcpy4
    file.o(i.DeleteActionFile_Function) refers to protocal.o(i.MESSAGE_Reply) for MESSAGE_Reply
    file.o(i.DeleteActionFile_Function) refers to delay.o(i.delay_ms) for delay_ms
    file.o(i.DeleteActionFile_Function) refers to ff.o(i.f_unlink) for f_unlink
    file.o(i.DeleteActionFile_Function) refers to file.o(i.SendFileCommand) for SendFileCommand
    file.o(i.DeleteActionFile_Function) refers to file.o(i.PRINT_FREUSTL) for PRINT_FREUSTL
    file.o(i.DeleteActionFile_Function) refers to strlen.o(.text) for strlen
    file.o(i.DeleteActionFile_Function) refers to file.o(.constdata) for .constdata
    file.o(i.DeleteActionFile_Function) refers to protocal.o(.bss) for Command_Buffer
    file.o(i.DeleteOrderFile_Function) refers to _printf_percent.o(.ARM.Collect$$_printf_percent$$00000000) for _printf_percent
    file.o(i.DeleteOrderFile_Function) refers to _printf_d.o(.ARM.Collect$$_printf_percent$$00000009) for _printf_d
    file.o(i.DeleteOrderFile_Function) refers to _printf_dec.o(.text) for _printf_int_dec
    file.o(i.DeleteOrderFile_Function) refers to rt_memcpy_w.o(.text) for __aeabi_memcpy4
    file.o(i.DeleteOrderFile_Function) refers to protocal.o(i.MESSAGE_Reply) for MESSAGE_Reply
    file.o(i.DeleteOrderFile_Function) refers to noretval__2printf.o(.text) for __2printf
    file.o(i.DeleteOrderFile_Function) refers to ff.o(i.f_unlink) for f_unlink
    file.o(i.DeleteOrderFile_Function) refers to file.o(i.SendFileCommand) for SendFileCommand
    file.o(i.DeleteOrderFile_Function) refers to file.o(.constdata) for .constdata
    file.o(i.DeleteOrderFile_Function) refers to protocal.o(.bss) for Command_Buffer
    file.o(i.DownloadActionFile_Function) refers to rt_memcpy_w.o(.text) for __aeabi_memcpy4
    file.o(i.DownloadActionFile_Function) refers to ff.o(i.f_sync) for f_sync
    file.o(i.DownloadActionFile_Function) refers to ff.o(i.f_open) for f_open
    file.o(i.DownloadActionFile_Function) refers to protocal.o(i.MESSAGE_Reply) for MESSAGE_Reply
    file.o(i.DownloadActionFile_Function) refers to file.o(i.PRINT_FREUSTL) for PRINT_FREUSTL
    file.o(i.DownloadActionFile_Function) refers to strlen.o(.text) for strlen
    file.o(i.DownloadActionFile_Function) refers to file.o(i.SendFileCommand) for SendFileCommand
    file.o(i.DownloadActionFile_Function) refers to ff.o(i.f_close) for f_close
    file.o(i.DownloadActionFile_Function) refers to ff.o(i.f_unlink) for f_unlink
    file.o(i.DownloadActionFile_Function) refers to ff.o(i.f_lseek) for f_lseek
    file.o(i.DownloadActionFile_Function) refers to ff.o(i.f_write) for f_write
    file.o(i.DownloadActionFile_Function) refers to file.o(.constdata) for .constdata
    file.o(i.DownloadActionFile_Function) refers to file.o(.data) for fds
    file.o(i.DownloadActionFile_Function) refers to file.o(.bss) for file_Action
    file.o(i.DownloadActionFile_Function) refers to protocal.o(.bss) for Command_Buffer
    file.o(i.DownloadSequence_Function) refers to rt_memcpy_w.o(.text) for __aeabi_memcpy4
    file.o(i.DownloadSequence_Function) refers to ff.o(i.f_open) for f_open
    file.o(i.DownloadSequence_Function) refers to protocal.o(i.MESSAGE_Reply) for MESSAGE_Reply
    file.o(i.DownloadSequence_Function) refers to ff.o(i.f_close) for f_close
    file.o(i.DownloadSequence_Function) refers to file.o(i.SendFileCommand) for SendFileCommand
    file.o(i.DownloadSequence_Function) refers to file.o(i.PRINT_FREUSTL) for PRINT_FREUSTL
    file.o(i.DownloadSequence_Function) refers to strlen.o(.text) for strlen
    file.o(i.DownloadSequence_Function) refers to ff.o(i.f_lseek) for f_lseek
    file.o(i.DownloadSequence_Function) refers to ff.o(i.f_write) for f_write
    file.o(i.DownloadSequence_Function) refers to file.o(.constdata) for .constdata
    file.o(i.DownloadSequence_Function) refers to file.o(.data) for fds
    file.o(i.DownloadSequence_Function) refers to protocal.o(.bss) for Command_Buffer
    file.o(i.DownloadSequence_Function) refers to file.o(.bss) for file_Order
    file.o(i.EnableAllServo) refers to ax12.o(i.axTorque) for axTorque
    file.o(i.EnableAllServo) refers to delay.o(i.delay_ms) for delay_ms
    file.o(i.EnableAllServo) refers to protocal.o(i.MESSAGE_Reply) for MESSAGE_Reply
    file.o(i.EnableAllServo) refers to protocal.o(.bss) for Command_Buffer
    file.o(i.ExcuteAction) refers to rt_memcpy_w.o(.text) for __aeabi_memcpy4
    file.o(i.ExcuteAction) refers to timer.o(i.clock_ms) for clock_ms
    file.o(i.ExcuteAction) refers to ff.o(i.f_open) for f_open
    file.o(i.ExcuteAction) refers to protocal.o(i.MESSAGE_Reply) for MESSAGE_Reply
    file.o(i.ExcuteAction) refers to ff.o(i.f_read) for f_read
    file.o(i.ExcuteAction) refers to ax12.o(i.axAllPosition) for axAllPosition
    file.o(i.ExcuteAction) refers to delay.o(i.delay_ms) for delay_ms
    file.o(i.ExcuteAction) refers to ff.o(i.f_close) for f_close
    file.o(i.ExcuteAction) refers to file.o(.constdata) for .constdata
    file.o(i.ExcuteAction) refers to file.o(.data) for order_flag
    file.o(i.ExcuteOrder) refers to rt_memcpy_w.o(.text) for __aeabi_memcpy4
    file.o(i.ExcuteOrder) refers to timer.o(i.clock_ms) for clock_ms
    file.o(i.ExcuteOrder) refers to ff.o(i.f_open) for f_open
    file.o(i.ExcuteOrder) refers to ff.o(i.f_read) for f_read
    file.o(i.ExcuteOrder) refers to file.o(i.ExcuteAction) for ExcuteAction
    file.o(i.ExcuteOrder) refers to ff.o(i.f_close) for f_close
    file.o(i.ExcuteOrder) refers to file.o(.constdata) for .constdata
    file.o(i.ExcuteOrder) refers to file.o(.data) for cur_time_ms
    file.o(i.ExecuteActionFile_Function) refers to file.o(i.ExcuteAction) for ExcuteAction
    file.o(i.ExecuteActionFile_Function) refers to file.o(i.SendFileCommand) for SendFileCommand
    file.o(i.ExecuteActionFile_Function) refers to protocal.o(.bss) for Command_Buffer
    file.o(i.ExecuteSequenceFile_Function) refers to protocal.o(i.MESSAGE_Reply) for MESSAGE_Reply
    file.o(i.ExecuteSequenceFile_Function) refers to file.o(i.ExcuteOrder) for ExcuteOrder
    file.o(i.ExecuteSequenceFile_Function) refers to file.o(i.SendFileCommand) for SendFileCommand
    file.o(i.ExecuteSequenceFile_Function) refers to protocal.o(.bss) for Command_Buffer
    file.o(i.FileSystemInit) refers to sdio_sdcard.o(i.SD_Init) for SD_Init
    file.o(i.FileSystemInit) refers to ff.o(i.f_mount) for f_mount
    file.o(i.FileSystemInit) refers to ff.o(i.f_opendir) for f_opendir
    file.o(i.FileSystemInit) refers to ff.o(i.f_mkdir) for f_mkdir
    file.o(i.FileSystemInit) refers to ff.o(i.f_closedir) for f_closedir
    file.o(i.FileSystemInit) refers to file.o(.data) for fds
    file.o(i.FileSystemInit) refers to file.o(.bss) for fs
    file.o(i.MoveServo_Function) refers to protocal.o(i.MESSAGE_Reply) for MESSAGE_Reply
    file.o(i.MoveServo_Function) refers to ax12.o(i.axAllPosition) for axAllPosition
    file.o(i.MoveServo_Function) refers to file.o(i.SendFileCommand) for SendFileCommand
    file.o(i.MoveServo_Function) refers to protocal.o(.bss) for Command_Buffer
    file.o(i.ReNameActionFile_Function) refers to _printf_percent.o(.ARM.Collect$$_printf_percent$$00000000) for _printf_percent
    file.o(i.ReNameActionFile_Function) refers to _printf_d.o(.ARM.Collect$$_printf_percent$$00000009) for _printf_d
    file.o(i.ReNameActionFile_Function) refers to _printf_dec.o(.text) for _printf_int_dec
    file.o(i.ReNameActionFile_Function) refers to rt_memcpy_w.o(.text) for __aeabi_memcpy4
    file.o(i.ReNameActionFile_Function) refers to noretval__2printf.o(.text) for __2printf
    file.o(i.ReNameActionFile_Function) refers to ff.o(i.f_rename) for f_rename
    file.o(i.ReNameActionFile_Function) refers to file.o(i.SendFileCommand) for SendFileCommand
    file.o(i.ReNameActionFile_Function) refers to file.o(.constdata) for .constdata
    file.o(i.ReNameActionFile_Function) refers to protocal.o(.bss) for Command_Buffer
    file.o(i.SendFileCommand) refers to protocal.o(i.MESSAGE_Reply) for MESSAGE_Reply
    file.o(i.SendFileCommand) refers to delay.o(i.delay_ms) for delay_ms
    file.o(i.SendFileCommand) refers to protocal.o(i.ptcClearCmdbuf) for ptcClearCmdbuf
    file.o(i.SendFileCommand) refers to protocal.o(.bss) for Command_Buffer
    file.o(i.UploadActionName_Function) refers to protocal.o(i.MESSAGE_Reply) for MESSAGE_Reply
    file.o(i.UploadActionName_Function) refers to ff.o(i.f_opendir) for f_opendir
    file.o(i.UploadActionName_Function) refers to ff.o(i.f_readdir) for f_readdir
    file.o(i.UploadActionName_Function) refers to ff.o(i.f_closedir) for f_closedir
    file.o(i.UploadActionName_Function) refers to file.o(i.SendFileCommand) for SendFileCommand
    file.o(i.UploadActionName_Function) refers to strlen.o(.text) for strlen
    file.o(i.UploadOrderFile_Function) refers to rt_memcpy_w.o(.text) for __aeabi_memcpy4
    file.o(i.UploadOrderFile_Function) refers to protocal.o(i.MESSAGE_Reply) for MESSAGE_Reply
    file.o(i.UploadOrderFile_Function) refers to ff.o(i.f_open) for f_open
    file.o(i.UploadOrderFile_Function) refers to ff.o(i.f_read) for f_read
    file.o(i.UploadOrderFile_Function) refers to ff.o(i.f_lseek) for f_lseek
    file.o(i.UploadOrderFile_Function) refers to strlen.o(.text) for strlen
    file.o(i.UploadOrderFile_Function) refers to file.o(i.SendFileCommand) for SendFileCommand
    file.o(i.UploadOrderFile_Function) refers to ff.o(i.f_close) for f_close
    file.o(i.UploadOrderFile_Function) refers to file.o(i.PRINT_FREUSTL) for PRINT_FREUSTL
    file.o(i.UploadOrderFile_Function) refers to file.o(.constdata) for .constdata
    file.o(i.UploadOrderFile_Function) refers to protocal.o(.bss) for Command_Buffer
    file.o(i.UploadOrderFile_Function) refers to file.o(.bss) for fp
    file.o(i.UploadOrderName_Function) refers to protocal.o(i.MESSAGE_Reply) for MESSAGE_Reply
    file.o(i.UploadOrderName_Function) refers to ff.o(i.f_opendir) for f_opendir
    file.o(i.UploadOrderName_Function) refers to ff.o(i.f_readdir) for f_readdir
    file.o(i.UploadOrderName_Function) refers to ff.o(i.f_closedir) for f_closedir
    file.o(i.UploadOrderName_Function) refers to file.o(i.SendFileCommand) for SendFileCommand
    file.o(i.UploadOrderName_Function) refers to strlen.o(.text) for strlen
    use_no_semi_2.o(.text) refers (Special) to use_no_semi.o(.text) for __use_no_semihosting_swi
    __2printf.o(.text) refers to _printf_char_file.o(.text) for _printf_char_file
    __2printf.o(.text) refers to ustdout.o(.data) for __stdout
    __2sprintf.o(.text) refers to _printf_char_common.o(.text) for _printf_char_common
    __2sprintf.o(.text) refers to _sputc.o(.text) for _sputc
    noretval__2printf.o(.text) refers to _printf_char_file.o(.text) for _printf_char_file
    noretval__2printf.o(.text) refers to ustdout.o(.data) for __stdout
    noretval__2sprintf.o(.text) refers to _printf_char_common.o(.text) for _printf_char_common
    noretval__2sprintf.o(.text) refers to _sputc.o(.text) for _sputc
    __printf.o(.text) refers to _printf_percent.o(.ARM.Collect$$_printf_percent$$00000000) for _printf_percent
    _printf_dec.o(.text) refers to _printf_intcommon.o(.text) for _printf_int_common
    __printf_flags.o(.text) refers to _printf_percent.o(.ARM.Collect$$_printf_percent$$00000000) for _printf_percent
    __printf_flags.o(.text) refers to __printf_flags.o(.constdata) for .constdata
    __printf_ss.o(.text) refers to _printf_percent.o(.ARM.Collect$$_printf_percent$$00000000) for _printf_percent
    __printf_flags_ss.o(.text) refers to _printf_percent.o(.ARM.Collect$$_printf_percent$$00000000) for _printf_percent
    __printf_flags_ss.o(.text) refers to __printf_flags_ss.o(.constdata) for .constdata
    __printf_wp.o(.text) refers to __printf_wp.o(i._is_digit) for _is_digit
    __printf_wp.o(.text) refers to _printf_percent.o(.ARM.Collect$$_printf_percent$$00000000) for _printf_percent
    __printf_flags_wp.o(.text) refers to __printf_wp.o(i._is_digit) for _is_digit
    __printf_flags_wp.o(.text) refers to _printf_percent.o(.ARM.Collect$$_printf_percent$$00000000) for _printf_percent
    __printf_flags_wp.o(.text) refers to __printf_flags_wp.o(.constdata) for .constdata
    __printf_ss_wp.o(.text) refers to __printf_wp.o(i._is_digit) for _is_digit
    __printf_ss_wp.o(.text) refers to _printf_percent.o(.ARM.Collect$$_printf_percent$$00000000) for _printf_percent
    __printf_flags_ss_wp.o(.text) refers to __printf_wp.o(i._is_digit) for _is_digit
    __printf_flags_ss_wp.o(.text) refers to _printf_percent.o(.ARM.Collect$$_printf_percent$$00000000) for _printf_percent
    __printf_flags_ss_wp.o(.text) refers to __printf_flags_ss_wp.o(.constdata) for .constdata
    _printf_d.o(.ARM.Collect$$_printf_percent$$00000009) refers (Weak) to _printf_dec.o(.text) for _printf_int_dec
    _printf_percent.o(.ARM.Collect$$_printf_percent$$00000000) refers (Special) to _printf_percent_end.o(.ARM.Collect$$_printf_percent$$00000017) for _printf_percent_end
    rt_memclr.o(.text) refers to rt_memclr_w.o(.text) for _memset_w
    __main.o(!!!main) refers to __rtentry.o(.ARM.Collect$$rtentry$$00000000) for __rt_entry
    d2f.o(x$fpl$d2f) refers (Special) to usenofp.o(x$fpl$usenofp) for __I$use$fp
    d2f.o(x$fpl$d2f) refers to fretinf.o(x$fpl$fretinf) for __fpl_fretinf
    d2f.o(x$fpl$d2f) refers to dnaninf.o(x$fpl$dnaninf) for __fpl_dnaninf
    daddsub_clz.o(x$fpl$dadd) refers (Special) to usenofp.o(x$fpl$usenofp) for __I$use$fp
    daddsub_clz.o(x$fpl$dadd) refers to daddsub_clz.o(x$fpl$dsub) for _dsub1
    daddsub_clz.o(x$fpl$dadd) refers to dretinf.o(x$fpl$dretinf) for __fpl_dretinf
    daddsub_clz.o(x$fpl$dadd) refers to dnaninf.o(x$fpl$dnaninf) for __fpl_dnaninf
    daddsub_clz.o(x$fpl$drsb) refers (Special) to usenofp.o(x$fpl$usenofp) for __I$use$fp
    daddsub_clz.o(x$fpl$drsb) refers to daddsub_clz.o(x$fpl$dadd) for _dadd1
    daddsub_clz.o(x$fpl$drsb) refers to daddsub_clz.o(x$fpl$dsub) for _dsub1
    daddsub_clz.o(x$fpl$dsub) refers (Special) to usenofp.o(x$fpl$usenofp) for __I$use$fp
    daddsub_clz.o(x$fpl$dsub) refers to daddsub_clz.o(x$fpl$dadd) for _dadd1
    daddsub_clz.o(x$fpl$dsub) refers to dnaninf.o(x$fpl$dnaninf) for __fpl_dnaninf
    ddiv.o(x$fpl$drdiv) refers (Special) to usenofp.o(x$fpl$usenofp) for __I$use$fp
    ddiv.o(x$fpl$drdiv) refers to ddiv.o(x$fpl$ddiv) for ddiv_entry
    ddiv.o(x$fpl$ddiv) refers (Special) to usenofp.o(x$fpl$usenofp) for __I$use$fp
    ddiv.o(x$fpl$ddiv) refers to dretinf.o(x$fpl$dretinf) for __fpl_dretinf
    ddiv.o(x$fpl$ddiv) refers to dnaninf.o(x$fpl$dnaninf) for __fpl_dnaninf
    dfixu.o(x$fpl$dfixu) refers (Special) to usenofp.o(x$fpl$usenofp) for __I$use$fp
    dfixu.o(x$fpl$dfixu) refers to dnaninf.o(x$fpl$dnaninf) for __fpl_dnaninf
    dfixu.o(x$fpl$dfixur) refers (Special) to usenofp.o(x$fpl$usenofp) for __I$use$fp
    dfixu.o(x$fpl$dfixur) refers to dnaninf.o(x$fpl$dnaninf) for __fpl_dnaninf
    dflt_clz.o(x$fpl$dfltu) refers (Special) to usenofp.o(x$fpl$usenofp) for __I$use$fp
    dflt_clz.o(x$fpl$dflt) refers (Special) to usenofp.o(x$fpl$usenofp) for __I$use$fp
    dflt_clz.o(x$fpl$dfltn) refers (Special) to usenofp.o(x$fpl$usenofp) for __I$use$fp
    dleqf.o(x$fpl$dleqf) refers (Special) to usenofp.o(x$fpl$usenofp) for __I$use$fp
    dleqf.o(x$fpl$dleqf) refers to dnaninf.o(x$fpl$dnaninf) for __fpl_dnaninf
    dleqf.o(x$fpl$dleqf) refers to dcmpi.o(x$fpl$dcmpinf) for __fpl_dcmp_Inf
    dmul.o(x$fpl$dmul) refers (Special) to usenofp.o(x$fpl$usenofp) for __I$use$fp
    dmul.o(x$fpl$dmul) refers to dretinf.o(x$fpl$dretinf) for __fpl_dretinf
    dmul.o(x$fpl$dmul) refers to dnaninf.o(x$fpl$dnaninf) for __fpl_dnaninf
    drleqf.o(x$fpl$drleqf) refers (Special) to usenofp.o(x$fpl$usenofp) for __I$use$fp
    drleqf.o(x$fpl$drleqf) refers to dleqf.o(x$fpl$dleqf) for __fpl_dcmple_InfNaN
    f2d.o(x$fpl$f2d) refers (Special) to usenofp.o(x$fpl$usenofp) for __I$use$fp
    f2d.o(x$fpl$f2d) refers to fnaninf.o(x$fpl$fnaninf) for __fpl_fnaninf
    f2d.o(x$fpl$f2d) refers to dretinf.o(x$fpl$dretinf) for __fpl_dretinf
    faddsub_clz.o(x$fpl$fadd) refers (Special) to usenofp.o(x$fpl$usenofp) for __I$use$fp
    faddsub_clz.o(x$fpl$fadd) refers to faddsub_clz.o(x$fpl$fsub) for _fsub1
    faddsub_clz.o(x$fpl$fadd) refers to fretinf.o(x$fpl$fretinf) for __fpl_fretinf
    faddsub_clz.o(x$fpl$fadd) refers to fnaninf.o(x$fpl$fnaninf) for __fpl_fnaninf
    faddsub_clz.o(x$fpl$frsb) refers (Special) to usenofp.o(x$fpl$usenofp) for __I$use$fp
    faddsub_clz.o(x$fpl$frsb) refers to faddsub_clz.o(x$fpl$fadd) for _fadd1
    faddsub_clz.o(x$fpl$frsb) refers to faddsub_clz.o(x$fpl$fsub) for _fsub1
    faddsub_clz.o(x$fpl$fsub) refers (Special) to usenofp.o(x$fpl$usenofp) for __I$use$fp
    faddsub_clz.o(x$fpl$fsub) refers to faddsub_clz.o(x$fpl$fadd) for _fadd1
    faddsub_clz.o(x$fpl$fsub) refers to fnaninf.o(x$fpl$fnaninf) for __fpl_fnaninf
    ffixu.o(x$fpl$ffixu) refers (Special) to usenofp.o(x$fpl$usenofp) for __I$use$fp
    ffixu.o(x$fpl$ffixu) refers to fnaninf.o(x$fpl$fnaninf) for __fpl_fnaninf
    ffixu.o(x$fpl$ffixur) refers (Special) to usenofp.o(x$fpl$usenofp) for __I$use$fp
    ffixu.o(x$fpl$ffixur) refers to fnaninf.o(x$fpl$fnaninf) for __fpl_fnaninf
    fflt_clz.o(x$fpl$ffltu) refers (Special) to usenofp.o(x$fpl$usenofp) for __I$use$fp
    fflt_clz.o(x$fpl$fflt) refers (Special) to usenofp.o(x$fpl$usenofp) for __I$use$fp
    fflt_clz.o(x$fpl$ffltn) refers (Special) to usenofp.o(x$fpl$usenofp) for __I$use$fp
    fmul.o(x$fpl$fmul) refers (Special) to usenofp.o(x$fpl$usenofp) for __I$use$fp
    fmul.o(x$fpl$fmul) refers to fretinf.o(x$fpl$fretinf) for __fpl_fretinf
    fmul.o(x$fpl$fmul) refers to fnaninf.o(x$fpl$fnaninf) for __fpl_fnaninf
    sin.o(i.__softfp_sin) refers (Special) to usenofp.o(x$fpl$usenofp) for __I$use$fp
    sin.o(i.__softfp_sin) refers to sin.o(i.sin) for sin
    sin.o(i.sin) refers (Special) to usenofp.o(x$fpl$usenofp) for __I$use$fp
    sin.o(i.sin) refers to _rserrno.o(.text) for __set_errno
    sin.o(i.sin) refers to dunder.o(i.__mathlib_dbl_invalid) for __mathlib_dbl_invalid
    sin.o(i.sin) refers to dunder.o(i.__mathlib_dbl_infnan) for __mathlib_dbl_infnan
    sin.o(i.sin) refers to rred.o(i.__ieee754_rem_pio2) for __ieee754_rem_pio2
    sin.o(i.sin) refers to cos_i.o(i.__kernel_cos) for __kernel_cos
    sin.o(i.sin) refers to sin_i.o(i.__kernel_sin) for __kernel_sin
    sin_x.o(i.____softfp_sin$lsc) refers (Special) to usenofp.o(x$fpl$usenofp) for __I$use$fp
    sin_x.o(i.____softfp_sin$lsc) refers to sin_x.o(i.__sin$lsc) for __sin$lsc
    sin_x.o(i.__sin$lsc) refers (Special) to usenofp.o(x$fpl$usenofp) for __I$use$fp
    sin_x.o(i.__sin$lsc) refers to _rserrno.o(.text) for __set_errno
    sin_x.o(i.__sin$lsc) refers to dunder.o(i.__mathlib_dbl_infnan) for __mathlib_dbl_infnan
    sin_x.o(i.__sin$lsc) refers to rred.o(i.__ieee754_rem_pio2) for __ieee754_rem_pio2
    sin_x.o(i.__sin$lsc) refers to cos_i.o(i.__kernel_cos) for __kernel_cos
    sin_x.o(i.__sin$lsc) refers to sin_i.o(i.__kernel_sin) for __kernel_sin
    __rtentry.o(.ARM.Collect$$rtentry$$00000000) refers (Special) to __rtentry2.o(.ARM.Collect$$rtentry$$0000000A) for __rt_entry_li
    __rtentry.o(.ARM.Collect$$rtentry$$00000000) refers (Special) to __rtentry2.o(.ARM.Collect$$rtentry$$0000000D) for __rt_entry_main
    __rtentry.o(.ARM.Collect$$rtentry$$00000000) refers (Special) to __rtentry2.o(.ARM.Collect$$rtentry$$0000000C) for __rt_entry_postli_1
    __rtentry.o(.ARM.Collect$$rtentry$$00000000) refers (Special) to __rtentry2.o(.ARM.Collect$$rtentry$$00000009) for __rt_entry_postsh_1
    __rtentry.o(.ARM.Collect$$rtentry$$00000000) refers (Special) to __rtentry2.o(.ARM.Collect$$rtentry$$00000002) for __rt_entry_presh_1
    __rtentry.o(.ARM.Collect$$rtentry$$00000000) refers (Special) to __rtentry4.o(.ARM.Collect$$rtentry$$00000004) for __rt_entry_sh
    _rserrno.o(.text) refers to rt_errno_addr_intlibspace.o(.text) for __aeabi_errno_addr
    _printf_char_common.o(.text) refers to __printf.o(.text) for __printf
    _printf_char_file.o(.text) refers to _printf_char_common.o(.text) for _printf_char_common
    _printf_char_file.o(.text) refers to ferror.o(.text) for ferror
    _printf_char_file.o(.text) refers to ustdout.o(i.fputc) for fputc
    dcmpi.o(x$fpl$dcmpinf) refers (Special) to usenofp.o(x$fpl$usenofp) for __I$use$fp
    dnaninf.o(x$fpl$dnaninf) refers (Special) to usenofp.o(x$fpl$usenofp) for __I$use$fp
    dretinf.o(x$fpl$dretinf) refers (Special) to usenofp.o(x$fpl$usenofp) for __I$use$fp
    fnaninf.o(x$fpl$fnaninf) refers (Special) to usenofp.o(x$fpl$usenofp) for __I$use$fp
    fretinf.o(x$fpl$fretinf) refers (Special) to usenofp.o(x$fpl$usenofp) for __I$use$fp
    cos_i.o(i.__kernel_cos) refers (Special) to usenofp.o(x$fpl$usenofp) for __I$use$fp
    cos_i.o(i.__kernel_cos) refers to dfix.o(x$fpl$dfix) for __aeabi_d2iz
    cos_i.o(i.__kernel_cos) refers to dmul.o(x$fpl$dmul) for __aeabi_dmul
    cos_i.o(i.__kernel_cos) refers to poly.o(i.__kernel_poly) for __kernel_poly
    cos_i.o(i.__kernel_cos) refers to daddsub_clz.o(x$fpl$dsub) for __aeabi_dsub
    cos_i.o(i.__kernel_cos) refers to scalbn.o(x$fpl$scalbn) for __ARM_scalbn
    cos_i.o(i.__kernel_cos) refers to daddsub_clz.o(x$fpl$drsb) for __aeabi_drsub
    cos_i.o(i.__kernel_cos) refers to cos_i.o(.constdata) for .constdata
    cos_i.o(.constdata) refers (Special) to usenofp.o(x$fpl$usenofp) for __I$use$fp
    dunder.o(i.__mathlib_dbl_divzero) refers to ddiv.o(x$fpl$ddiv) for __aeabi_ddiv
    dunder.o(i.__mathlib_dbl_infnan) refers to scalbn.o(x$fpl$scalbn) for __ARM_scalbn
    dunder.o(i.__mathlib_dbl_infnan2) refers to daddsub_clz.o(x$fpl$dadd) for __aeabi_dadd
    dunder.o(i.__mathlib_dbl_invalid) refers to ddiv.o(x$fpl$ddiv) for __aeabi_ddiv
    dunder.o(i.__mathlib_dbl_overflow) refers to scalbn.o(x$fpl$scalbn) for __ARM_scalbn
    dunder.o(i.__mathlib_dbl_posinfnan) refers to dmul.o(x$fpl$dmul) for __aeabi_dmul
    dunder.o(i.__mathlib_dbl_underflow) refers to scalbn.o(x$fpl$scalbn) for __ARM_scalbn
    rred.o(i.__ieee754_rem_pio2) refers (Special) to usenofp.o(x$fpl$usenofp) for __I$use$fp
    rred.o(i.__ieee754_rem_pio2) refers to daddsub_clz.o(x$fpl$dsub) for __aeabi_dsub
    rred.o(i.__ieee754_rem_pio2) refers to daddsub_clz.o(x$fpl$dadd) for __aeabi_dadd
    rred.o(i.__ieee754_rem_pio2) refers to dmul.o(x$fpl$dmul) for __aeabi_dmul
    rred.o(i.__ieee754_rem_pio2) refers to dfix.o(x$fpl$dfix) for __aeabi_d2iz
    rred.o(i.__ieee754_rem_pio2) refers to dflt_clz.o(x$fpl$dflt) for __aeabi_i2d
    rred.o(i.__ieee754_rem_pio2) refers to daddsub_clz.o(x$fpl$drsb) for __aeabi_drsub
    rred.o(i.__ieee754_rem_pio2) refers to dflt_clz.o(x$fpl$dfltu) for __aeabi_ui2d
    rred.o(i.__ieee754_rem_pio2) refers to scalbn.o(x$fpl$scalbn) for __ARM_scalbn
    rred.o(i.__ieee754_rem_pio2) refers to rred.o(.constdata) for .constdata
    rred.o(i.__use_accurate_range_reduction) refers (Special) to usenofp.o(x$fpl$usenofp) for __I$use$fp
    rred.o(.constdata) refers (Special) to usenofp.o(x$fpl$usenofp) for __I$use$fp
    sin_i.o(i.__kernel_sin) refers (Special) to usenofp.o(x$fpl$usenofp) for __I$use$fp
    sin_i.o(i.__kernel_sin) refers to fpclassify.o(i.__ARM_fpclassify) for __ARM_fpclassify
    sin_i.o(i.__kernel_sin) refers to dunder.o(i.__mathlib_dbl_underflow) for __mathlib_dbl_underflow
    sin_i.o(i.__kernel_sin) refers to dmul.o(x$fpl$dmul) for __aeabi_dmul
    sin_i.o(i.__kernel_sin) refers to poly.o(i.__kernel_poly) for __kernel_poly
    sin_i.o(i.__kernel_sin) refers to scalbn.o(x$fpl$scalbn) for __ARM_scalbn
    sin_i.o(i.__kernel_sin) refers to daddsub_clz.o(x$fpl$dsub) for __aeabi_dsub
    sin_i.o(i.__kernel_sin) refers to daddsub_clz.o(x$fpl$drsb) for __aeabi_drsub
    sin_i.o(i.__kernel_sin) refers to daddsub_clz.o(x$fpl$dadd) for __aeabi_dadd
    sin_i.o(i.__kernel_sin) refers to sin_i.o(.constdata) for .constdata
    sin_i.o(.constdata) refers (Special) to usenofp.o(x$fpl$usenofp) for __I$use$fp
    sin_i_x.o(i.____kernel_sin$lsc) refers (Special) to usenofp.o(x$fpl$usenofp) for __I$use$fp
    sin_i_x.o(i.____kernel_sin$lsc) refers to dmul.o(x$fpl$dmul) for __aeabi_dmul
    sin_i_x.o(i.____kernel_sin$lsc) refers to poly.o(i.__kernel_poly) for __kernel_poly
    sin_i_x.o(i.____kernel_sin$lsc) refers to scalbn.o(x$fpl$scalbn) for __ARM_scalbn
    sin_i_x.o(i.____kernel_sin$lsc) refers to daddsub_clz.o(x$fpl$dsub) for __aeabi_dsub
    sin_i_x.o(i.____kernel_sin$lsc) refers to daddsub_clz.o(x$fpl$drsb) for __aeabi_drsub
    sin_i_x.o(i.____kernel_sin$lsc) refers to daddsub_clz.o(x$fpl$dadd) for __aeabi_dadd
    sin_i_x.o(i.____kernel_sin$lsc) refers to sin_i_x.o(.constdata) for .constdata
    sin_i_x.o(.constdata) refers (Special) to usenofp.o(x$fpl$usenofp) for __I$use$fp
    __rtentry2.o(.ARM.Collect$$rtentry$$00000008) refers to boardinit2.o(.text) for _platform_post_stackheap_init
    __rtentry2.o(.ARM.Collect$$rtentry$$0000000A) refers to libinit.o(.ARM.Collect$$libinit$$00000000) for __rt_lib_init
    __rtentry2.o(.ARM.Collect$$rtentry$$0000000B) refers to boardinit3.o(.text) for _platform_post_lib_init
    __rtentry2.o(.ARM.Collect$$rtentry$$0000000D) refers to main.o(i.main) for main
    __rtentry2.o(.ARM.Collect$$rtentry$$0000000D) refers to exit.o(.text) for exit
    __rtentry2.o(.ARM.exidx) refers to __rtentry2.o(.ARM.Collect$$rtentry$$00000001) for .ARM.Collect$$rtentry$$00000001
    __rtentry2.o(.ARM.exidx) refers to __rtentry2.o(.ARM.Collect$$rtentry$$00000008) for .ARM.Collect$$rtentry$$00000008
    __rtentry2.o(.ARM.exidx) refers to __rtentry2.o(.ARM.Collect$$rtentry$$0000000A) for .ARM.Collect$$rtentry$$0000000A
    __rtentry2.o(.ARM.exidx) refers to __rtentry2.o(.ARM.Collect$$rtentry$$0000000B) for .ARM.Collect$$rtentry$$0000000B
    __rtentry2.o(.ARM.exidx) refers to __rtentry2.o(.ARM.Collect$$rtentry$$0000000D) for .ARM.Collect$$rtentry$$0000000D
    __rtentry4.o(.ARM.Collect$$rtentry$$00000004) refers to sys_stackheap_outer.o(.text) for __user_setup_stackheap
    __rtentry4.o(.ARM.exidx) refers to __rtentry4.o(.ARM.Collect$$rtentry$$00000004) for .ARM.Collect$$rtentry$$00000004
    rt_errno_addr.o(.text) refers to rt_errno_addr.o(.bss) for __aeabi_errno_addr_data
    rt_errno_addr_intlibspace.o(.text) refers to libspace.o(.bss) for __libspace_start
    dfix.o(x$fpl$dfix) refers (Special) to usenofp.o(x$fpl$usenofp) for __I$use$fp
    dfix.o(x$fpl$dfix) refers to dnaninf.o(x$fpl$dnaninf) for __fpl_dnaninf
    dfix.o(x$fpl$dfixr) refers (Special) to usenofp.o(x$fpl$usenofp) for __I$use$fp
    dfix.o(x$fpl$dfixr) refers to dnaninf.o(x$fpl$dnaninf) for __fpl_dnaninf
    scalbn.o(x$fpl$scalbn) refers (Special) to usenofp.o(x$fpl$usenofp) for __I$use$fp
    scalbn.o(x$fpl$scalbn) refers to dcheck1.o(x$fpl$dcheck1) for __fpl_dcheck_NaN1
    fpclassify.o(i.__ARM_fpclassify) refers (Special) to usenofp.o(x$fpl$usenofp) for __I$use$fp
    poly.o(i.__kernel_poly) refers (Special) to usenofp.o(x$fpl$usenofp) for __I$use$fp
    poly.o(i.__kernel_poly) refers to dmul.o(x$fpl$dmul) for __aeabi_dmul
    poly.o(i.__kernel_poly) refers to daddsub_clz.o(x$fpl$dadd) for __aeabi_dadd
    libspace.o(.text) refers to libspace.o(.bss) for __libspace_start
    sys_stackheap_outer.o(.text) refers to libspace.o(.text) for __user_perproc_libspace
    sys_stackheap_outer.o(.text) refers to startup_stm32f10x_hd.o(.text) for __user_initial_stackheap
    exit.o(.text) refers to rtexit.o(.ARM.Collect$$rtexit$$00000000) for __rt_exit
    libinit.o(.ARM.Collect$$libinit$$00000000) refers (Special) to libinit2.o(.ARM.Collect$$libinit$$0000002E) for __rt_lib_init_alloca_1
    libinit.o(.ARM.Collect$$libinit$$00000000) refers (Special) to libinit2.o(.ARM.Collect$$libinit$$0000002C) for __rt_lib_init_argv_1
    libinit.o(.ARM.Collect$$libinit$$00000000) refers (Special) to libinit2.o(.ARM.Collect$$libinit$$0000001B) for __rt_lib_init_atexit_1
    libinit.o(.ARM.Collect$$libinit$$00000000) refers (Special) to libinit2.o(.ARM.Collect$$libinit$$00000021) for __rt_lib_init_clock_1
    libinit.o(.ARM.Collect$$libinit$$00000000) refers (Special) to libinit2.o(.ARM.Collect$$libinit$$00000032) for __rt_lib_init_cpp_1
    libinit.o(.ARM.Collect$$libinit$$00000000) refers (Special) to libinit2.o(.ARM.Collect$$libinit$$00000030) for __rt_lib_init_exceptions_1
    libinit.o(.ARM.Collect$$libinit$$00000000) refers (Special) to libinit2.o(.ARM.Collect$$libinit$$00000002) for __rt_lib_init_fp_1
    libinit.o(.ARM.Collect$$libinit$$00000000) refers (Special) to libinit2.o(.ARM.Collect$$libinit$$0000001F) for __rt_lib_init_fp_trap_1
    libinit.o(.ARM.Collect$$libinit$$00000000) refers (Special) to libinit2.o(.ARM.Collect$$libinit$$00000023) for __rt_lib_init_getenv_1
    libinit.o(.ARM.Collect$$libinit$$00000000) refers (Special) to libinit2.o(.ARM.Collect$$libinit$$0000000A) for __rt_lib_init_heap_1
    libinit.o(.ARM.Collect$$libinit$$00000000) refers (Special) to libinit2.o(.ARM.Collect$$libinit$$00000011) for __rt_lib_init_lc_collate_1
    libinit.o(.ARM.Collect$$libinit$$00000000) refers (Special) to libinit2.o(.ARM.Collect$$libinit$$00000013) for __rt_lib_init_lc_ctype_1
    libinit.o(.ARM.Collect$$libinit$$00000000) refers (Special) to libinit2.o(.ARM.Collect$$libinit$$00000015) for __rt_lib_init_lc_monetary_1
    libinit.o(.ARM.Collect$$libinit$$00000000) refers (Special) to libinit2.o(.ARM.Collect$$libinit$$00000017) for __rt_lib_init_lc_numeric_1
    libinit.o(.ARM.Collect$$libinit$$00000000) refers (Special) to libinit2.o(.ARM.Collect$$libinit$$00000019) for __rt_lib_init_lc_time_1
    libinit.o(.ARM.Collect$$libinit$$00000000) refers (Special) to libinit2.o(.ARM.Collect$$libinit$$00000004) for __rt_lib_init_preinit_1
    libinit.o(.ARM.Collect$$libinit$$00000000) refers (Special) to libinit2.o(.ARM.Collect$$libinit$$0000000E) for __rt_lib_init_rand_1
    libinit.o(.ARM.Collect$$libinit$$00000000) refers (Special) to libinit2.o(.ARM.Collect$$libinit$$00000033) for __rt_lib_init_return
    libinit.o(.ARM.Collect$$libinit$$00000000) refers (Special) to libinit2.o(.ARM.Collect$$libinit$$0000001D) for __rt_lib_init_signal_1
    libinit.o(.ARM.Collect$$libinit$$00000000) refers (Special) to libinit2.o(.ARM.Collect$$libinit$$00000025) for __rt_lib_init_stdio_1
    libinit.o(.ARM.Collect$$libinit$$00000000) refers (Special) to libinit2.o(.ARM.Collect$$libinit$$0000000C) for __rt_lib_init_user_alloc_1
    dcheck1.o(x$fpl$dcheck1) refers (Special) to usenofp.o(x$fpl$usenofp) for __I$use$fp
    dcheck1.o(x$fpl$dcheck1) refers to retnan.o(x$fpl$retnan) for __fpl_return_NaN
    rtexit.o(.ARM.Collect$$rtexit$$00000000) refers (Special) to rtexit2.o(.ARM.Collect$$rtexit$$00000004) for __rt_exit_exit
    rtexit.o(.ARM.Collect$$rtexit$$00000000) refers (Special) to rtexit2.o(.ARM.Collect$$rtexit$$00000003) for __rt_exit_ls
    rtexit.o(.ARM.Collect$$rtexit$$00000000) refers (Special) to rtexit2.o(.ARM.Collect$$rtexit$$00000002) for __rt_exit_prels_1
    rtexit.o(.ARM.exidx) refers (Special) to rtexit2.o(.ARM.Collect$$rtexit$$00000004) for __rt_exit_exit
    rtexit.o(.ARM.exidx) refers (Special) to rtexit2.o(.ARM.Collect$$rtexit$$00000003) for __rt_exit_ls
    rtexit.o(.ARM.exidx) refers (Special) to rtexit2.o(.ARM.Collect$$rtexit$$00000002) for __rt_exit_prels_1
    rtexit.o(.ARM.exidx) refers to rtexit.o(.ARM.Collect$$rtexit$$00000000) for .ARM.Collect$$rtexit$$00000000
    libinit2.o(.ARM.Collect$$libinit$$00000010) refers to libinit2.o(.ARM.Collect$$libinit$$0000000F) for .ARM.Collect$$libinit$$0000000F
    libinit2.o(.ARM.Collect$$libinit$$00000012) refers to libinit2.o(.ARM.Collect$$libinit$$0000000F) for .ARM.Collect$$libinit$$0000000F
    libinit2.o(.ARM.Collect$$libinit$$00000014) refers to libinit2.o(.ARM.Collect$$libinit$$0000000F) for .ARM.Collect$$libinit$$0000000F
    libinit2.o(.ARM.Collect$$libinit$$00000016) refers to libinit2.o(.ARM.Collect$$libinit$$0000000F) for .ARM.Collect$$libinit$$0000000F
    libinit2.o(.ARM.Collect$$libinit$$00000018) refers to libinit2.o(.ARM.Collect$$libinit$$0000000F) for .ARM.Collect$$libinit$$0000000F
    libinit2.o(.ARM.Collect$$libinit$$00000026) refers to argv_veneer.o(.emb_text) for __ARM_argv_veneer
    libinit2.o(.ARM.Collect$$libinit$$00000027) refers to argv_veneer.o(.emb_text) for __ARM_argv_veneer
    retnan.o(x$fpl$retnan) refers (Special) to usenofp.o(x$fpl$usenofp) for __I$use$fp
    retnan.o(x$fpl$retnan) refers to trapv.o(x$fpl$trapveneer) for __fpl_cmpreturn
    rtexit2.o(.ARM.Collect$$rtexit$$00000003) refers to libshutdown.o(.ARM.Collect$$libshutdown$$00000000) for __rt_lib_shutdown
    rtexit2.o(.ARM.Collect$$rtexit$$00000004) refers to ustdout.o(i._sys_exit) for _sys_exit
    rtexit2.o(.ARM.exidx) refers to rtexit2.o(.ARM.Collect$$rtexit$$00000001) for .ARM.Collect$$rtexit$$00000001
    rtexit2.o(.ARM.exidx) refers to rtexit2.o(.ARM.Collect$$rtexit$$00000003) for .ARM.Collect$$rtexit$$00000003
    rtexit2.o(.ARM.exidx) refers to rtexit2.o(.ARM.Collect$$rtexit$$00000004) for .ARM.Collect$$rtexit$$00000004
    argv_veneer.o(.emb_text) refers to no_argv.o(.text) for __ARM_get_argv
    trapv.o(x$fpl$trapveneer) refers (Special) to usenofp.o(x$fpl$usenofp) for __I$use$fp
    _get_argv_nomalloc.o(.text) refers (Special) to hrguard.o(.text) for __heap_region$guard
    _get_argv_nomalloc.o(.text) refers to defsig_rtmem_outer.o(.text) for __rt_SIGRTMEM
    _get_argv_nomalloc.o(.text) refers to sys_command.o(.text) for _sys_command_string
    libshutdown.o(.ARM.Collect$$libshutdown$$00000000) refers (Special) to libshutdown2.o(.ARM.Collect$$libshutdown$$00000006) for __rt_lib_shutdown_fp_trap_1
    libshutdown.o(.ARM.Collect$$libshutdown$$00000000) refers (Special) to libshutdown2.o(.ARM.Collect$$libshutdown$$0000000E) for __rt_lib_shutdown_heap_1
    libshutdown.o(.ARM.Collect$$libshutdown$$00000000) refers (Special) to libshutdown2.o(.ARM.Collect$$libshutdown$$0000000F) for __rt_lib_shutdown_return
    libshutdown.o(.ARM.Collect$$libshutdown$$00000000) refers (Special) to libshutdown2.o(.ARM.Collect$$libshutdown$$00000009) for __rt_lib_shutdown_signal_1
    libshutdown.o(.ARM.Collect$$libshutdown$$00000000) refers (Special) to libshutdown2.o(.ARM.Collect$$libshutdown$$00000003) for __rt_lib_shutdown_stdio_1
    libshutdown.o(.ARM.Collect$$libshutdown$$00000000) refers (Special) to libshutdown2.o(.ARM.Collect$$libshutdown$$0000000B) for __rt_lib_shutdown_user_alloc_1
    sys_command.o(.text) refers (Special) to use_no_semi.o(.text) for __I$use$semihosting
    sys_command.o(.text) refers (Special) to indicate_semi.o(.text) for __semihosting_library_function
    defsig_rtmem_outer.o(.text) refers to defsig_rtmem_inner.o(.text) for __rt_SIGRTMEM_inner
    defsig_rtmem_outer.o(.text) refers to defsig_exit.o(.text) for __sig_exit
    defsig_rtmem_formal.o(.text) refers to rt_raise.o(.text) for __rt_raise
    rt_raise.o(.text) refers to __raise.o(.text) for __raise
    rt_raise.o(.text) refers to ustdout.o(i._sys_exit) for _sys_exit
    defsig_exit.o(.text) refers to ustdout.o(i._sys_exit) for _sys_exit
    defsig_rtmem_inner.o(.text) refers to defsig_general.o(.text) for __default_signal_display
    __raise.o(.text) refers to defsig.o(CL$$defsig) for __default_signal_handler
    defsig_general.o(.text) refers to sys_wrch.o(.text) for _ttywrch
    sys_wrch.o(.text) refers (Special) to use_no_semi.o(.text) for __I$use$semihosting
    sys_wrch.o(.text) refers (Special) to indicate_semi.o(.text) for __semihosting_library_function
    defsig.o(CL$$defsig) refers to defsig_rtmem_inner.o(.text) for __rt_SIGRTMEM_inner
    defsig_abrt_inner.o(.text) refers to defsig_general.o(.text) for __default_signal_display
    defsig_fpe_inner.o(.text) refers to defsig_general.o(.text) for __default_signal_display
    defsig_rtred_inner.o(.text) refers to defsig_general.o(.text) for __default_signal_display
    defsig_stak_inner.o(.text) refers to defsig_general.o(.text) for __default_signal_display
    defsig_pvfn_inner.o(.text) refers to defsig_general.o(.text) for __default_signal_display
    defsig_cppl_inner.o(.text) refers to defsig_general.o(.text) for __default_signal_display
    defsig_segv_inner.o(.text) refers to defsig_general.o(.text) for __default_signal_display
    defsig_other.o(.text) refers to defsig_general.o(.text) for __default_signal_display


==============================================================================

Removing Unused input sections from the image.

    Removing system_stm32f10x.o(i.SystemCoreClockUpdate), (164 bytes).
    Removing delay.o(i.delay_us), (76 bytes).
    Removing sys.o(.emb_text), (6 bytes).
    Removing sys.o(i.INTX_DISABLE), (4 bytes).
    Removing sys.o(i.INTX_ENABLE), (4 bytes).
    Removing sys.o(i.WFI_SET), (4 bytes).
    Removing core_cm3.o(.emb_text), (32 bytes).
    Removing misc.o(i.NVIC_PriorityGroupConfig), (20 bytes).
    Removing misc.o(i.NVIC_SetVectorTable), (20 bytes).
    Removing misc.o(i.NVIC_SystemLPConfig), (32 bytes).
    Removing stm32f10x_adc.o(i.ADC_AnalogWatchdogCmd), (20 bytes).
    Removing stm32f10x_adc.o(i.ADC_AnalogWatchdogSingleChannelConfig), (16 bytes).
    Removing stm32f10x_adc.o(i.ADC_AnalogWatchdogThresholdsConfig), (6 bytes).
    Removing stm32f10x_adc.o(i.ADC_AutoInjectedConvCmd), (22 bytes).
    Removing stm32f10x_adc.o(i.ADC_ClearFlag), (6 bytes).
    Removing stm32f10x_adc.o(i.ADC_ClearITPendingBit), (10 bytes).
    Removing stm32f10x_adc.o(i.ADC_Cmd), (22 bytes).
    Removing stm32f10x_adc.o(i.ADC_DMACmd), (22 bytes).
    Removing stm32f10x_adc.o(i.ADC_DeInit), (92 bytes).
    Removing stm32f10x_adc.o(i.ADC_DiscModeChannelCountConfig), (24 bytes).
    Removing stm32f10x_adc.o(i.ADC_DiscModeCmd), (22 bytes).
    Removing stm32f10x_adc.o(i.ADC_ExternalTrigConvCmd), (22 bytes).
    Removing stm32f10x_adc.o(i.ADC_ExternalTrigInjectedConvCmd), (22 bytes).
    Removing stm32f10x_adc.o(i.ADC_ExternalTrigInjectedConvConfig), (16 bytes).
    Removing stm32f10x_adc.o(i.ADC_GetCalibrationStatus), (20 bytes).
    Removing stm32f10x_adc.o(i.ADC_GetConversionValue), (8 bytes).
    Removing stm32f10x_adc.o(i.ADC_GetDualModeConversionValue), (12 bytes).
    Removing stm32f10x_adc.o(i.ADC_GetFlagStatus), (18 bytes).
    Removing stm32f10x_adc.o(i.ADC_GetITStatus), (36 bytes).
    Removing stm32f10x_adc.o(i.ADC_GetInjectedConversionValue), (28 bytes).
    Removing stm32f10x_adc.o(i.ADC_GetResetCalibrationStatus), (20 bytes).
    Removing stm32f10x_adc.o(i.ADC_GetSoftwareStartConvStatus), (20 bytes).
    Removing stm32f10x_adc.o(i.ADC_GetSoftwareStartInjectedConvCmdStatus), (20 bytes).
    Removing stm32f10x_adc.o(i.ADC_ITConfig), (24 bytes).
    Removing stm32f10x_adc.o(i.ADC_Init), (80 bytes).
    Removing stm32f10x_adc.o(i.ADC_InjectedChannelConfig), (130 bytes).
    Removing stm32f10x_adc.o(i.ADC_InjectedDiscModeCmd), (22 bytes).
    Removing stm32f10x_adc.o(i.ADC_InjectedSequencerLengthConfig), (24 bytes).
    Removing stm32f10x_adc.o(i.ADC_RegularChannelConfig), (184 bytes).
    Removing stm32f10x_adc.o(i.ADC_ResetCalibration), (10 bytes).
    Removing stm32f10x_adc.o(i.ADC_SetInjectedOffset), (20 bytes).
    Removing stm32f10x_adc.o(i.ADC_SoftwareStartConvCmd), (22 bytes).
    Removing stm32f10x_adc.o(i.ADC_SoftwareStartInjectedConvCmd), (22 bytes).
    Removing stm32f10x_adc.o(i.ADC_StartCalibration), (10 bytes).
    Removing stm32f10x_adc.o(i.ADC_StructInit), (18 bytes).
    Removing stm32f10x_adc.o(i.ADC_TempSensorVrefintCmd), (36 bytes).
    Removing stm32f10x_bkp.o(i.BKP_ClearFlag), (20 bytes).
    Removing stm32f10x_bkp.o(i.BKP_ClearITPendingBit), (20 bytes).
    Removing stm32f10x_bkp.o(i.BKP_DeInit), (16 bytes).
    Removing stm32f10x_bkp.o(i.BKP_GetFlagStatus), (12 bytes).
    Removing stm32f10x_bkp.o(i.BKP_GetITStatus), (12 bytes).
    Removing stm32f10x_bkp.o(i.BKP_ITConfig), (12 bytes).
    Removing stm32f10x_bkp.o(i.BKP_RTCOutputConfig), (28 bytes).
    Removing stm32f10x_bkp.o(i.BKP_ReadBackupRegister), (28 bytes).
    Removing stm32f10x_bkp.o(i.BKP_SetRTCCalibrationValue), (28 bytes).
    Removing stm32f10x_bkp.o(i.BKP_TamperPinCmd), (12 bytes).
    Removing stm32f10x_bkp.o(i.BKP_TamperPinLevelConfig), (12 bytes).
    Removing stm32f10x_bkp.o(i.BKP_WriteBackupRegister), (28 bytes).
    Removing stm32f10x_can.o(i.CAN_CancelTransmit), (48 bytes).
    Removing stm32f10x_can.o(i.CAN_ClearFlag), (56 bytes).
    Removing stm32f10x_can.o(i.CAN_ClearITPendingBit), (168 bytes).
    Removing stm32f10x_can.o(i.CAN_DBGFreeze), (22 bytes).
    Removing stm32f10x_can.o(i.CAN_DeInit), (56 bytes).
    Removing stm32f10x_can.o(i.CAN_FIFORelease), (22 bytes).
    Removing stm32f10x_can.o(i.CAN_FilterInit), (264 bytes).
    Removing stm32f10x_can.o(i.CAN_GetFlagStatus), (120 bytes).
    Removing stm32f10x_can.o(i.CAN_GetITStatus), (288 bytes).
    Removing stm32f10x_can.o(i.CAN_GetLSBTransmitErrorCounter), (12 bytes).
    Removing stm32f10x_can.o(i.CAN_GetLastErrorCode), (12 bytes).
    Removing stm32f10x_can.o(i.CAN_GetReceiveErrorCounter), (10 bytes).
    Removing stm32f10x_can.o(i.CAN_ITConfig), (18 bytes).
    Removing stm32f10x_can.o(i.CAN_Init), (276 bytes).
    Removing stm32f10x_can.o(i.CAN_MessagePending), (30 bytes).
    Removing stm32f10x_can.o(i.CAN_OperatingModeRequest), (162 bytes).
    Removing stm32f10x_can.o(i.CAN_Receive), (240 bytes).
    Removing stm32f10x_can.o(i.CAN_SlaveStartBank), (52 bytes).
    Removing stm32f10x_can.o(i.CAN_Sleep), (30 bytes).
    Removing stm32f10x_can.o(i.CAN_StructInit), (32 bytes).
    Removing stm32f10x_can.o(i.CAN_TTComModeCmd), (118 bytes).
    Removing stm32f10x_can.o(i.CAN_Transmit), (294 bytes).
    Removing stm32f10x_can.o(i.CAN_TransmitStatus), (160 bytes).
    Removing stm32f10x_can.o(i.CAN_WakeUp), (48 bytes).
    Removing stm32f10x_can.o(i.CheckITStatus), (18 bytes).
    Removing stm32f10x_cec.o(i.CEC_ClearFlag), (36 bytes).
    Removing stm32f10x_cec.o(i.CEC_ClearITPendingBit), (36 bytes).
    Removing stm32f10x_cec.o(i.CEC_Cmd), (32 bytes).
    Removing stm32f10x_cec.o(i.CEC_DeInit), (22 bytes).
    Removing stm32f10x_cec.o(i.CEC_EndOfMessageCmd), (12 bytes).
    Removing stm32f10x_cec.o(i.CEC_GetFlagStatus), (48 bytes).
    Removing stm32f10x_cec.o(i.CEC_GetITStatus), (40 bytes).
    Removing stm32f10x_cec.o(i.CEC_ITConfig), (12 bytes).
    Removing stm32f10x_cec.o(i.CEC_Init), (32 bytes).
    Removing stm32f10x_cec.o(i.CEC_OwnAddressConfig), (12 bytes).
    Removing stm32f10x_cec.o(i.CEC_ReceiveDataByte), (12 bytes).
    Removing stm32f10x_cec.o(i.CEC_SendDataByte), (12 bytes).
    Removing stm32f10x_cec.o(i.CEC_SetPrescaler), (12 bytes).
    Removing stm32f10x_cec.o(i.CEC_StartOfMessage), (12 bytes).
    Removing stm32f10x_crc.o(i.CRC_CalcBlockCRC), (36 bytes).
    Removing stm32f10x_crc.o(i.CRC_CalcCRC), (16 bytes).
    Removing stm32f10x_crc.o(i.CRC_GetCRC), (12 bytes).
    Removing stm32f10x_crc.o(i.CRC_GetIDRegister), (12 bytes).
    Removing stm32f10x_crc.o(i.CRC_ResetDR), (12 bytes).
    Removing stm32f10x_crc.o(i.CRC_SetIDRegister), (12 bytes).
    Removing stm32f10x_dac.o(i.DAC_Cmd), (40 bytes).
    Removing stm32f10x_dac.o(i.DAC_DMACmd), (44 bytes).
    Removing stm32f10x_dac.o(i.DAC_DeInit), (22 bytes).
    Removing stm32f10x_dac.o(i.DAC_DualSoftwareTriggerCmd), (36 bytes).
    Removing stm32f10x_dac.o(i.DAC_GetDataOutputValue), (36 bytes).
    Removing stm32f10x_dac.o(i.DAC_Init), (52 bytes).
    Removing stm32f10x_dac.o(i.DAC_SetChannel1Data), (32 bytes).
    Removing stm32f10x_dac.o(i.DAC_SetChannel2Data), (32 bytes).
    Removing stm32f10x_dac.o(i.DAC_SetDualChannelData), (36 bytes).
    Removing stm32f10x_dac.o(i.DAC_SoftwareTriggerCmd), (44 bytes).
    Removing stm32f10x_dac.o(i.DAC_StructInit), (12 bytes).
    Removing stm32f10x_dac.o(i.DAC_WaveGenerationCmd), (40 bytes).
    Removing stm32f10x_dbgmcu.o(i.DBGMCU_Config), (32 bytes).
    Removing stm32f10x_dbgmcu.o(i.DBGMCU_GetDEVID), (16 bytes).
    Removing stm32f10x_dbgmcu.o(i.DBGMCU_GetREVID), (12 bytes).
    Removing stm32f10x_dma.o(i.DMA_ClearITPendingBit), (28 bytes).
    Removing stm32f10x_dma.o(i.DMA_DeInit), (332 bytes).
    Removing stm32f10x_dma.o(i.DMA_GetCurrDataCounter), (8 bytes).
    Removing stm32f10x_dma.o(i.DMA_GetITStatus), (44 bytes).
    Removing stm32f10x_dma.o(i.DMA_ITConfig), (18 bytes).
    Removing stm32f10x_dma.o(i.DMA_SetCurrDataCounter), (4 bytes).
    Removing stm32f10x_dma.o(i.DMA_StructInit), (26 bytes).
    Removing stm32f10x_exti.o(i.EXTI_ClearFlag), (12 bytes).
    Removing stm32f10x_exti.o(i.EXTI_DeInit), (36 bytes).
    Removing stm32f10x_exti.o(i.EXTI_GenerateSWInterrupt), (16 bytes).
    Removing stm32f10x_exti.o(i.EXTI_GetFlagStatus), (24 bytes).
    Removing stm32f10x_exti.o(i.EXTI_GetITStatus), (40 bytes).
    Removing stm32f10x_exti.o(i.EXTI_StructInit), (16 bytes).
    Removing stm32f10x_flash.o(i.FLASH_ClearFlag), (12 bytes).
    Removing stm32f10x_flash.o(i.FLASH_EnableWriteProtection), (196 bytes).
    Removing stm32f10x_flash.o(i.FLASH_EraseAllBank1Pages), (72 bytes).
    Removing stm32f10x_flash.o(i.FLASH_EraseAllPages), (72 bytes).
    Removing stm32f10x_flash.o(i.FLASH_EraseOptionBytes), (168 bytes).
    Removing stm32f10x_flash.o(i.FLASH_ErasePage), (76 bytes).
    Removing stm32f10x_flash.o(i.FLASH_GetBank1Status), (52 bytes).
    Removing stm32f10x_flash.o(i.FLASH_GetFlagStatus), (48 bytes).
    Removing stm32f10x_flash.o(i.FLASH_GetPrefetchBufferStatus), (24 bytes).
    Removing stm32f10x_flash.o(i.FLASH_GetReadOutProtectionStatus), (24 bytes).
    Removing stm32f10x_flash.o(i.FLASH_GetStatus), (52 bytes).
    Removing stm32f10x_flash.o(i.FLASH_GetUserOptionByte), (12 bytes).
    Removing stm32f10x_flash.o(i.FLASH_GetWriteProtectionOptionByte), (12 bytes).
    Removing stm32f10x_flash.o(i.FLASH_HalfCycleAccessCmd), (28 bytes).
    Removing stm32f10x_flash.o(i.FLASH_ITConfig), (32 bytes).
    Removing stm32f10x_flash.o(i.FLASH_Lock), (20 bytes).
    Removing stm32f10x_flash.o(i.FLASH_LockBank1), (20 bytes).
    Removing stm32f10x_flash.o(i.FLASH_PrefetchBufferCmd), (28 bytes).
    Removing stm32f10x_flash.o(i.FLASH_ProgramHalfWord), (64 bytes).
    Removing stm32f10x_flash.o(i.FLASH_ProgramOptionByteData), (84 bytes).
    Removing stm32f10x_flash.o(i.FLASH_ProgramWord), (108 bytes).
    Removing stm32f10x_flash.o(i.FLASH_ReadOutProtection), (172 bytes).
    Removing stm32f10x_flash.o(i.FLASH_SetLatency), (24 bytes).
    Removing stm32f10x_flash.o(i.FLASH_Unlock), (24 bytes).
    Removing stm32f10x_flash.o(i.FLASH_UnlockBank1), (24 bytes).
    Removing stm32f10x_flash.o(i.FLASH_UserOptionByteConfig), (104 bytes).
    Removing stm32f10x_flash.o(i.FLASH_WaitForLastBank1Operation), (38 bytes).
    Removing stm32f10x_flash.o(i.FLASH_WaitForLastOperation), (38 bytes).
    Removing stm32f10x_fsmc.o(i.FSMC_ClearFlag), (64 bytes).
    Removing stm32f10x_fsmc.o(i.FSMC_ClearITPendingBit), (72 bytes).
    Removing stm32f10x_fsmc.o(i.FSMC_GetECC), (28 bytes).
    Removing stm32f10x_fsmc.o(i.FSMC_GetFlagStatus), (56 bytes).
    Removing stm32f10x_fsmc.o(i.FSMC_GetITStatus), (68 bytes).
    Removing stm32f10x_fsmc.o(i.FSMC_ITConfig), (128 bytes).
    Removing stm32f10x_fsmc.o(i.FSMC_NANDCmd), (92 bytes).
    Removing stm32f10x_fsmc.o(i.FSMC_NANDDeInit), (68 bytes).
    Removing stm32f10x_fsmc.o(i.FSMC_NANDECCCmd), (92 bytes).
    Removing stm32f10x_fsmc.o(i.FSMC_NANDInit), (136 bytes).
    Removing stm32f10x_fsmc.o(i.FSMC_NANDStructInit), (54 bytes).
    Removing stm32f10x_fsmc.o(i.FSMC_NORSRAMCmd), (52 bytes).
    Removing stm32f10x_fsmc.o(i.FSMC_NORSRAMDeInit), (54 bytes).
    Removing stm32f10x_fsmc.o(i.FSMC_NORSRAMInit), (230 bytes).
    Removing stm32f10x_fsmc.o(i.FSMC_NORSRAMStructInit), (114 bytes).
    Removing stm32f10x_fsmc.o(i.FSMC_PCCARDCmd), (48 bytes).
    Removing stm32f10x_fsmc.o(i.FSMC_PCCARDDeInit), (40 bytes).
    Removing stm32f10x_fsmc.o(i.FSMC_PCCARDInit), (132 bytes).
    Removing stm32f10x_fsmc.o(i.FSMC_PCCARDStructInit), (60 bytes).
    Removing stm32f10x_gpio.o(i.GPIO_AFIODeInit), (20 bytes).
    Removing stm32f10x_gpio.o(i.GPIO_DeInit), (200 bytes).
    Removing stm32f10x_gpio.o(i.GPIO_ETH_MediaInterfaceConfig), (12 bytes).
    Removing stm32f10x_gpio.o(i.GPIO_EventOutputCmd), (12 bytes).
    Removing stm32f10x_gpio.o(i.GPIO_EventOutputConfig), (32 bytes).
    Removing stm32f10x_gpio.o(i.GPIO_PinLockConfig), (18 bytes).
    Removing stm32f10x_gpio.o(i.GPIO_PinRemapConfig), (144 bytes).
    Removing stm32f10x_gpio.o(i.GPIO_ReadInputData), (8 bytes).
    Removing stm32f10x_gpio.o(i.GPIO_ReadInputDataBit), (18 bytes).
    Removing stm32f10x_gpio.o(i.GPIO_ReadOutputData), (8 bytes).
    Removing stm32f10x_gpio.o(i.GPIO_ReadOutputDataBit), (18 bytes).
    Removing stm32f10x_gpio.o(i.GPIO_ResetBits), (4 bytes).
    Removing stm32f10x_gpio.o(i.GPIO_StructInit), (16 bytes).
    Removing stm32f10x_gpio.o(i.GPIO_Write), (4 bytes).
    Removing stm32f10x_gpio.o(i.GPIO_WriteBit), (10 bytes).
    Removing stm32f10x_i2c.o(i.I2C_ARPCmd), (24 bytes).
    Removing stm32f10x_i2c.o(i.I2C_AcknowledgeConfig), (24 bytes).
    Removing stm32f10x_i2c.o(i.I2C_CalculatePEC), (24 bytes).
    Removing stm32f10x_i2c.o(i.I2C_CheckEvent), (42 bytes).
    Removing stm32f10x_i2c.o(i.I2C_ClearFlag), (12 bytes).
    Removing stm32f10x_i2c.o(i.I2C_ClearITPendingBit), (12 bytes).
    Removing stm32f10x_i2c.o(i.I2C_Cmd), (24 bytes).
    Removing stm32f10x_i2c.o(i.I2C_DMACmd), (24 bytes).
    Removing stm32f10x_i2c.o(i.I2C_DMALastTransferCmd), (24 bytes).
    Removing stm32f10x_i2c.o(i.I2C_DeInit), (56 bytes).
    Removing stm32f10x_i2c.o(i.I2C_DualAddressCmd), (24 bytes).
    Removing stm32f10x_i2c.o(i.I2C_FastModeDutyCycleConfig), (28 bytes).
    Removing stm32f10x_i2c.o(i.I2C_GeneralCallCmd), (24 bytes).
    Removing stm32f10x_i2c.o(i.I2C_GenerateSTART), (24 bytes).
    Removing stm32f10x_i2c.o(i.I2C_GenerateSTOP), (24 bytes).
    Removing stm32f10x_i2c.o(i.I2C_GetFlagStatus), (58 bytes).
    Removing stm32f10x_i2c.o(i.I2C_GetITStatus), (38 bytes).
    Removing stm32f10x_i2c.o(i.I2C_GetLastEvent), (26 bytes).
    Removing stm32f10x_i2c.o(i.I2C_GetPEC), (8 bytes).
    Removing stm32f10x_i2c.o(i.I2C_ITConfig), (18 bytes).
    Removing stm32f10x_i2c.o(i.I2C_Init), (236 bytes).
    Removing stm32f10x_i2c.o(i.I2C_NACKPositionConfig), (28 bytes).
    Removing stm32f10x_i2c.o(i.I2C_OwnAddress2Config), (22 bytes).
    Removing stm32f10x_i2c.o(i.I2C_PECPositionConfig), (28 bytes).
    Removing stm32f10x_i2c.o(i.I2C_ReadRegister), (22 bytes).
    Removing stm32f10x_i2c.o(i.I2C_ReceiveData), (8 bytes).
    Removing stm32f10x_i2c.o(i.I2C_SMBusAlertConfig), (28 bytes).
    Removing stm32f10x_i2c.o(i.I2C_Send7bitAddress), (18 bytes).
    Removing stm32f10x_i2c.o(i.I2C_SendData), (4 bytes).
    Removing stm32f10x_i2c.o(i.I2C_SoftwareResetCmd), (22 bytes).
    Removing stm32f10x_i2c.o(i.I2C_StretchClockCmd), (24 bytes).
    Removing stm32f10x_i2c.o(i.I2C_StructInit), (30 bytes).
    Removing stm32f10x_i2c.o(i.I2C_TransmitPEC), (24 bytes).
    Removing stm32f10x_iwdg.o(i.IWDG_Enable), (16 bytes).
    Removing stm32f10x_iwdg.o(i.IWDG_GetFlagStatus), (24 bytes).
    Removing stm32f10x_iwdg.o(i.IWDG_ReloadCounter), (16 bytes).
    Removing stm32f10x_iwdg.o(i.IWDG_SetPrescaler), (12 bytes).
    Removing stm32f10x_iwdg.o(i.IWDG_SetReload), (12 bytes).
    Removing stm32f10x_iwdg.o(i.IWDG_WriteAccessCmd), (12 bytes).
    Removing stm32f10x_pwr.o(i.PWR_BackupAccessCmd), (12 bytes).
    Removing stm32f10x_pwr.o(i.PWR_ClearFlag), (20 bytes).
    Removing stm32f10x_pwr.o(i.PWR_DeInit), (22 bytes).
    Removing stm32f10x_pwr.o(i.PWR_EnterSTANDBYMode), (52 bytes).
    Removing stm32f10x_pwr.o(i.PWR_EnterSTOPMode), (64 bytes).
    Removing stm32f10x_pwr.o(i.PWR_GetFlagStatus), (24 bytes).
    Removing stm32f10x_pwr.o(i.PWR_PVDCmd), (12 bytes).
    Removing stm32f10x_pwr.o(i.PWR_PVDLevelConfig), (24 bytes).
    Removing stm32f10x_pwr.o(i.PWR_WakeUpPinCmd), (12 bytes).
    Removing stm32f10x_rcc.o(i.RCC_ADCCLKConfig), (24 bytes).
    Removing stm32f10x_rcc.o(i.RCC_APB1PeriphResetCmd), (32 bytes).
    Removing stm32f10x_rcc.o(i.RCC_APB2PeriphResetCmd), (32 bytes).
    Removing stm32f10x_rcc.o(i.RCC_AdjustHSICalibrationValue), (24 bytes).
    Removing stm32f10x_rcc.o(i.RCC_BackupResetCmd), (12 bytes).
    Removing stm32f10x_rcc.o(i.RCC_ClearFlag), (20 bytes).
    Removing stm32f10x_rcc.o(i.RCC_ClearITPendingBit), (12 bytes).
    Removing stm32f10x_rcc.o(i.RCC_ClockSecuritySystemCmd), (12 bytes).
    Removing stm32f10x_rcc.o(i.RCC_DeInit), (76 bytes).
    Removing stm32f10x_rcc.o(i.RCC_GetFlagStatus), (60 bytes).
    Removing stm32f10x_rcc.o(i.RCC_GetITStatus), (24 bytes).
    Removing stm32f10x_rcc.o(i.RCC_GetSYSCLKSource), (16 bytes).
    Removing stm32f10x_rcc.o(i.RCC_HCLKConfig), (24 bytes).
    Removing stm32f10x_rcc.o(i.RCC_HSEConfig), (76 bytes).
    Removing stm32f10x_rcc.o(i.RCC_HSICmd), (12 bytes).
    Removing stm32f10x_rcc.o(i.RCC_ITConfig), (32 bytes).
    Removing stm32f10x_rcc.o(i.RCC_LSEConfig), (52 bytes).
    Removing stm32f10x_rcc.o(i.RCC_LSICmd), (12 bytes).
    Removing stm32f10x_rcc.o(i.RCC_MCOConfig), (12 bytes).
    Removing stm32f10x_rcc.o(i.RCC_PCLK1Config), (24 bytes).
    Removing stm32f10x_rcc.o(i.RCC_PCLK2Config), (24 bytes).
    Removing stm32f10x_rcc.o(i.RCC_PLLCmd), (12 bytes).
    Removing stm32f10x_rcc.o(i.RCC_PLLConfig), (28 bytes).
    Removing stm32f10x_rcc.o(i.RCC_RTCCLKCmd), (12 bytes).
    Removing stm32f10x_rcc.o(i.RCC_RTCCLKConfig), (16 bytes).
    Removing stm32f10x_rcc.o(i.RCC_SYSCLKConfig), (24 bytes).
    Removing stm32f10x_rcc.o(i.RCC_USBCLKConfig), (12 bytes).
    Removing stm32f10x_rcc.o(i.RCC_WaitForHSEStartUp), (56 bytes).
    Removing stm32f10x_rtc.o(i.RTC_ClearFlag), (16 bytes).
    Removing stm32f10x_rtc.o(i.RTC_ClearITPendingBit), (16 bytes).
    Removing stm32f10x_rtc.o(i.RTC_EnterConfigMode), (20 bytes).
    Removing stm32f10x_rtc.o(i.RTC_ExitConfigMode), (20 bytes).
    Removing stm32f10x_rtc.o(i.RTC_GetCounter), (20 bytes).
    Removing stm32f10x_rtc.o(i.RTC_GetDivider), (24 bytes).
    Removing stm32f10x_rtc.o(i.RTC_GetFlagStatus), (24 bytes).
    Removing stm32f10x_rtc.o(i.RTC_GetITStatus), (36 bytes).
    Removing stm32f10x_rtc.o(i.RTC_ITConfig), (32 bytes).
    Removing stm32f10x_rtc.o(i.RTC_SetAlarm), (28 bytes).
    Removing stm32f10x_rtc.o(i.RTC_SetCounter), (28 bytes).
    Removing stm32f10x_rtc.o(i.RTC_SetPrescaler), (32 bytes).
    Removing stm32f10x_rtc.o(i.RTC_WaitForLastTask), (20 bytes).
    Removing stm32f10x_rtc.o(i.RTC_WaitForSynchro), (36 bytes).
    Removing stm32f10x_sdio.o(i.SDIO_CEATAITCmd), (16 bytes).
    Removing stm32f10x_sdio.o(i.SDIO_ClearITPendingBit), (12 bytes).
    Removing stm32f10x_sdio.o(i.SDIO_CmdStructInit), (14 bytes).
    Removing stm32f10x_sdio.o(i.SDIO_CommandCompletionCmd), (12 bytes).
    Removing stm32f10x_sdio.o(i.SDIO_DataStructInit), (20 bytes).
    Removing stm32f10x_sdio.o(i.SDIO_GetDataCounter), (12 bytes).
    Removing stm32f10x_sdio.o(i.SDIO_GetFIFOCount), (12 bytes).
    Removing stm32f10x_sdio.o(i.SDIO_GetITStatus), (24 bytes).
    Removing stm32f10x_sdio.o(i.SDIO_SendCEATACmd), (12 bytes).
    Removing stm32f10x_sdio.o(i.SDIO_SendSDIOSuspendCmd), (12 bytes).
    Removing stm32f10x_sdio.o(i.SDIO_SetSDIOOperation), (12 bytes).
    Removing stm32f10x_sdio.o(i.SDIO_SetSDIOReadWaitMode), (12 bytes).
    Removing stm32f10x_sdio.o(i.SDIO_StartSDIOReadWait), (12 bytes).
    Removing stm32f10x_sdio.o(i.SDIO_StopSDIOReadWait), (12 bytes).
    Removing stm32f10x_sdio.o(i.SDIO_StructInit), (16 bytes).
    Removing stm32f10x_sdio.o(i.SDIO_WriteData), (12 bytes).
    Removing stm32f10x_spi.o(i.I2S_Cmd), (24 bytes).
    Removing stm32f10x_spi.o(i.I2S_Init), (232 bytes).
    Removing stm32f10x_spi.o(i.I2S_StructInit), (20 bytes).
    Removing stm32f10x_spi.o(i.SPI_BiDirectionalLineConfig), (28 bytes).
    Removing stm32f10x_spi.o(i.SPI_CalculateCRC), (24 bytes).
    Removing stm32f10x_spi.o(i.SPI_Cmd), (24 bytes).
    Removing stm32f10x_spi.o(i.SPI_DataSizeConfig), (18 bytes).
    Removing stm32f10x_spi.o(i.SPI_GetCRC), (16 bytes).
    Removing stm32f10x_spi.o(i.SPI_GetCRCPolynomial), (6 bytes).
    Removing stm32f10x_spi.o(i.SPI_I2S_ClearFlag), (6 bytes).
    Removing stm32f10x_spi.o(i.SPI_I2S_ClearITPendingBit), (20 bytes).
    Removing stm32f10x_spi.o(i.SPI_I2S_DMACmd), (18 bytes).
    Removing stm32f10x_spi.o(i.SPI_I2S_DeInit), (88 bytes).
    Removing stm32f10x_spi.o(i.SPI_I2S_GetFlagStatus), (18 bytes).
    Removing stm32f10x_spi.o(i.SPI_I2S_GetITStatus), (52 bytes).
    Removing stm32f10x_spi.o(i.SPI_I2S_ITConfig), (32 bytes).
    Removing stm32f10x_spi.o(i.SPI_I2S_ReceiveData), (6 bytes).
    Removing stm32f10x_spi.o(i.SPI_I2S_SendData), (4 bytes).
    Removing stm32f10x_spi.o(i.SPI_Init), (60 bytes).
    Removing stm32f10x_spi.o(i.SPI_NSSInternalSoftwareConfig), (30 bytes).
    Removing stm32f10x_spi.o(i.SPI_SSOutputCmd), (24 bytes).
    Removing stm32f10x_spi.o(i.SPI_StructInit), (24 bytes).
    Removing stm32f10x_spi.o(i.SPI_TransmitCRC), (10 bytes).
    Removing stm32f10x_tim.o(i.TI1_Config), (128 bytes).
    Removing stm32f10x_tim.o(i.TI2_Config), (152 bytes).
    Removing stm32f10x_tim.o(i.TI3_Config), (144 bytes).
    Removing stm32f10x_tim.o(i.TI4_Config), (152 bytes).
    Removing stm32f10x_tim.o(i.TIM_ARRPreloadConfig), (24 bytes).
    Removing stm32f10x_tim.o(i.TIM_BDTRConfig), (32 bytes).
    Removing stm32f10x_tim.o(i.TIM_BDTRStructInit), (18 bytes).
    Removing stm32f10x_tim.o(i.TIM_CCPreloadControl), (24 bytes).
    Removing stm32f10x_tim.o(i.TIM_CCxCmd), (30 bytes).
    Removing stm32f10x_tim.o(i.TIM_CCxNCmd), (30 bytes).
    Removing stm32f10x_tim.o(i.TIM_ClearFlag), (6 bytes).
    Removing stm32f10x_tim.o(i.TIM_ClearOC1Ref), (18 bytes).
    Removing stm32f10x_tim.o(i.TIM_ClearOC2Ref), (24 bytes).
    Removing stm32f10x_tim.o(i.TIM_ClearOC3Ref), (18 bytes).
    Removing stm32f10x_tim.o(i.TIM_ClearOC4Ref), (24 bytes).
    Removing stm32f10x_tim.o(i.TIM_CounterModeConfig), (18 bytes).
    Removing stm32f10x_tim.o(i.TIM_CtrlPWMOutputs), (30 bytes).
    Removing stm32f10x_tim.o(i.TIM_DMACmd), (18 bytes).
    Removing stm32f10x_tim.o(i.TIM_DMAConfig), (10 bytes).
    Removing stm32f10x_tim.o(i.TIM_DeInit), (488 bytes).
    Removing stm32f10x_tim.o(i.TIM_ETRClockMode1Config), (54 bytes).
    Removing stm32f10x_tim.o(i.TIM_ETRClockMode2Config), (32 bytes).
    Removing stm32f10x_tim.o(i.TIM_ETRConfig), (28 bytes).
    Removing stm32f10x_tim.o(i.TIM_EncoderInterfaceConfig), (66 bytes).
    Removing stm32f10x_tim.o(i.TIM_ForcedOC1Config), (18 bytes).
    Removing stm32f10x_tim.o(i.TIM_ForcedOC2Config), (26 bytes).
    Removing stm32f10x_tim.o(i.TIM_ForcedOC3Config), (18 bytes).
    Removing stm32f10x_tim.o(i.TIM_ForcedOC4Config), (26 bytes).
    Removing stm32f10x_tim.o(i.TIM_GenerateEvent), (4 bytes).
    Removing stm32f10x_tim.o(i.TIM_GetCapture1), (6 bytes).
    Removing stm32f10x_tim.o(i.TIM_GetCapture2), (6 bytes).
    Removing stm32f10x_tim.o(i.TIM_GetCapture3), (6 bytes).
    Removing stm32f10x_tim.o(i.TIM_GetCapture4), (8 bytes).
    Removing stm32f10x_tim.o(i.TIM_GetCounter), (6 bytes).
    Removing stm32f10x_tim.o(i.TIM_GetFlagStatus), (18 bytes).
    Removing stm32f10x_tim.o(i.TIM_GetPrescaler), (6 bytes).
    Removing stm32f10x_tim.o(i.TIM_ICInit), (172 bytes).
    Removing stm32f10x_tim.o(i.TIM_ICStructInit), (18 bytes).
    Removing stm32f10x_tim.o(i.TIM_ITRxExternalClockConfig), (24 bytes).
    Removing stm32f10x_tim.o(i.TIM_InternalClockConfig), (12 bytes).
    Removing stm32f10x_tim.o(i.TIM_OC1FastConfig), (18 bytes).
    Removing stm32f10x_tim.o(i.TIM_OC1Init), (152 bytes).
    Removing stm32f10x_tim.o(i.TIM_OC1NPolarityConfig), (18 bytes).
    Removing stm32f10x_tim.o(i.TIM_OC1PolarityConfig), (18 bytes).
    Removing stm32f10x_tim.o(i.TIM_OC1PreloadConfig), (18 bytes).
    Removing stm32f10x_tim.o(i.TIM_OC2FastConfig), (26 bytes).
    Removing stm32f10x_tim.o(i.TIM_OC2Init), (164 bytes).
    Removing stm32f10x_tim.o(i.TIM_OC2NPolarityConfig), (26 bytes).
    Removing stm32f10x_tim.o(i.TIM_OC2PolarityConfig), (26 bytes).
    Removing stm32f10x_tim.o(i.TIM_OC2PreloadConfig), (26 bytes).
    Removing stm32f10x_tim.o(i.TIM_OC3FastConfig), (18 bytes).
    Removing stm32f10x_tim.o(i.TIM_OC3Init), (160 bytes).
    Removing stm32f10x_tim.o(i.TIM_OC3NPolarityConfig), (26 bytes).
    Removing stm32f10x_tim.o(i.TIM_OC3PolarityConfig), (26 bytes).
    Removing stm32f10x_tim.o(i.TIM_OC3PreloadConfig), (18 bytes).
    Removing stm32f10x_tim.o(i.TIM_OC4FastConfig), (26 bytes).
    Removing stm32f10x_tim.o(i.TIM_OC4Init), (124 bytes).
    Removing stm32f10x_tim.o(i.TIM_OC4PolarityConfig), (26 bytes).
    Removing stm32f10x_tim.o(i.TIM_OC4PreloadConfig), (26 bytes).
    Removing stm32f10x_tim.o(i.TIM_OCStructInit), (20 bytes).
    Removing stm32f10x_tim.o(i.TIM_PWMIConfig), (124 bytes).
    Removing stm32f10x_tim.o(i.TIM_PrescalerConfig), (6 bytes).
    Removing stm32f10x_tim.o(i.TIM_SelectCCDMA), (24 bytes).
    Removing stm32f10x_tim.o(i.TIM_SelectCOM), (24 bytes).
    Removing stm32f10x_tim.o(i.TIM_SelectHallSensor), (24 bytes).
    Removing stm32f10x_tim.o(i.TIM_SelectInputTrigger), (18 bytes).
    Removing stm32f10x_tim.o(i.TIM_SelectMasterSlaveMode), (18 bytes).
    Removing stm32f10x_tim.o(i.TIM_SelectOCxM), (82 bytes).
    Removing stm32f10x_tim.o(i.TIM_SelectOnePulseMode), (18 bytes).
    Removing stm32f10x_tim.o(i.TIM_SelectOutputTrigger), (18 bytes).
    Removing stm32f10x_tim.o(i.TIM_SelectSlaveMode), (18 bytes).
    Removing stm32f10x_tim.o(i.TIM_SetAutoreload), (4 bytes).
    Removing stm32f10x_tim.o(i.TIM_SetClockDivision), (18 bytes).
    Removing stm32f10x_tim.o(i.TIM_SetCompare1), (4 bytes).
    Removing stm32f10x_tim.o(i.TIM_SetCompare2), (4 bytes).
    Removing stm32f10x_tim.o(i.TIM_SetCompare3), (4 bytes).
    Removing stm32f10x_tim.o(i.TIM_SetCompare4), (6 bytes).
    Removing stm32f10x_tim.o(i.TIM_SetCounter), (4 bytes).
    Removing stm32f10x_tim.o(i.TIM_SetIC1Prescaler), (18 bytes).
    Removing stm32f10x_tim.o(i.TIM_SetIC2Prescaler), (26 bytes).
    Removing stm32f10x_tim.o(i.TIM_SetIC3Prescaler), (18 bytes).
    Removing stm32f10x_tim.o(i.TIM_SetIC4Prescaler), (26 bytes).
    Removing stm32f10x_tim.o(i.TIM_TIxExternalClockConfig), (62 bytes).
    Removing stm32f10x_tim.o(i.TIM_TimeBaseStructInit), (18 bytes).
    Removing stm32f10x_tim.o(i.TIM_UpdateDisableConfig), (24 bytes).
    Removing stm32f10x_tim.o(i.TIM_UpdateRequestConfig), (24 bytes).
    Removing stm32f10x_usart.o(i.USART_ClearFlag), (18 bytes).
    Removing stm32f10x_usart.o(i.USART_ClearITPendingBit), (30 bytes).
    Removing stm32f10x_usart.o(i.USART_ClockInit), (34 bytes).
    Removing stm32f10x_usart.o(i.USART_ClockStructInit), (12 bytes).
    Removing stm32f10x_usart.o(i.USART_Cmd), (24 bytes).
    Removing stm32f10x_usart.o(i.USART_DMACmd), (18 bytes).
    Removing stm32f10x_usart.o(i.USART_DeInit), (156 bytes).
    Removing stm32f10x_usart.o(i.USART_GetFlagStatus), (26 bytes).
    Removing stm32f10x_usart.o(i.USART_GetITStatus), (84 bytes).
    Removing stm32f10x_usart.o(i.USART_HalfDuplexCmd), (24 bytes).
    Removing stm32f10x_usart.o(i.USART_ITConfig), (74 bytes).
    Removing stm32f10x_usart.o(i.USART_IrDACmd), (24 bytes).
    Removing stm32f10x_usart.o(i.USART_IrDAConfig), (18 bytes).
    Removing stm32f10x_usart.o(i.USART_LINBreakDetectLengthConfig), (18 bytes).
    Removing stm32f10x_usart.o(i.USART_LINCmd), (24 bytes).
    Removing stm32f10x_usart.o(i.USART_OneBitMethodCmd), (24 bytes).
    Removing stm32f10x_usart.o(i.USART_OverSampling8Cmd), (22 bytes).
    Removing stm32f10x_usart.o(i.USART_ReceiveData), (10 bytes).
    Removing stm32f10x_usart.o(i.USART_ReceiverWakeUpCmd), (24 bytes).
    Removing stm32f10x_usart.o(i.USART_SendBreak), (10 bytes).
    Removing stm32f10x_usart.o(i.USART_SendData), (8 bytes).
    Removing stm32f10x_usart.o(i.USART_SetAddress), (18 bytes).
    Removing stm32f10x_usart.o(i.USART_SetGuardTime), (16 bytes).
    Removing stm32f10x_usart.o(i.USART_SetPrescaler), (16 bytes).
    Removing stm32f10x_usart.o(i.USART_SmartCardCmd), (24 bytes).
    Removing stm32f10x_usart.o(i.USART_SmartCardNACKCmd), (24 bytes).
    Removing stm32f10x_usart.o(i.USART_StructInit), (24 bytes).
    Removing stm32f10x_usart.o(i.USART_WakeUpConfig), (18 bytes).
    Removing stm32f10x_wwdg.o(i.WWDG_ClearFlag), (12 bytes).
    Removing stm32f10x_wwdg.o(i.WWDG_DeInit), (22 bytes).
    Removing stm32f10x_wwdg.o(i.WWDG_Enable), (16 bytes).
    Removing stm32f10x_wwdg.o(i.WWDG_EnableIT), (12 bytes).
    Removing stm32f10x_wwdg.o(i.WWDG_GetFlagStatus), (12 bytes).
    Removing stm32f10x_wwdg.o(i.WWDG_SetCounter), (16 bytes).
    Removing stm32f10x_wwdg.o(i.WWDG_SetPrescaler), (24 bytes).
    Removing stm32f10x_wwdg.o(i.WWDG_SetWindowValue), (40 bytes).
    Removing ustdout.o(i.fputc), (32 bytes).
    Removing ustdout.o(i.usartx_senddat), (68 bytes).
    Removing ustdout.o(.data), (8 bytes).
    Removing usart1.o(i.usart1_senddat), (60 bytes).
    Removing usart2.o(i.usart2_init), (164 bytes).
    Removing usart2.o(i.usart2_senddat), (76 bytes).
    Removing usart2.o(.constdata), (16 bytes).
    Removing timer.o(i.clock_ms), (72 bytes).
    Removing sdio_sdcard.o(i.IsCardProgramming), (412 bytes).
    Removing sdio_sdcard.o(i.SD_DeInit), (76 bytes).
    Removing sdio_sdcard.o(i.SD_Erase), (312 bytes).
    Removing sdio_sdcard.o(i.SD_GetCardStatus), (160 bytes).
    Removing sdio_sdcard.o(i.SD_GetTransferState), (24 bytes).
    Removing sdio_sdcard.o(i.SD_PowerOFF), (14 bytes).
    Removing sdio_sdcard.o(i.SD_ProcessIRQSrc), (88 bytes).
    Removing sdio_sdcard.o(i.SD_ReadMultiBlocks), (232 bytes).
    Removing sdio_sdcard.o(i.SD_SendSDStatus), (376 bytes).
    Removing sdio_sdcard.o(i.SD_StopTransfer), (32 bytes).
    Removing sdio_sdcard.o(i.convert_from_bytes_to_power_of_two), (18 bytes).
    Removing dma.o(i.DMA1_Init), (96 bytes).
    Removing dma.o(i.DMA1_SendDat), (60 bytes).
    Removing dma.o(.constdata), (4 bytes).
    Removing pwm.o(i.TIM4_Init), (164 bytes).
    Removing pwm.o(i.steel_pst), (260 bytes).
    Removing config.o(.constdata), (1200 bytes).
    Removing action.o(i.Init_Pos), (20 bytes).
    Removing ff.o(i.dir_read), (210 bytes).
    Removing ff.o(i.dir_remove), (96 bytes).
    Removing ff.o(i.f_close), (34 bytes).
    Removing ff.o(i.f_getfree), (252 bytes).
    Removing ff.o(i.f_gets), (82 bytes).
    Removing ff.o(i.f_lseek), (384 bytes).
    Removing ff.o(i.f_mkfs), (1676 bytes).
    Removing ff.o(i.f_open), (494 bytes).
    Removing ff.o(i.f_printf), (596 bytes).
    Removing ff.o(i.f_putc), (34 bytes).
    Removing ff.o(i.f_puts), (44 bytes).
    Removing ff.o(i.f_read), (412 bytes).
    Removing ff.o(i.f_readdir), (78 bytes).
    Removing ff.o(i.f_rename), (250 bytes).
    Removing ff.o(i.f_stat), (62 bytes).
    Removing ff.o(i.f_sync), (160 bytes).
    Removing ff.o(i.f_truncate), (178 bytes).
    Removing ff.o(i.f_unlink), (170 bytes).
    Removing ff.o(i.f_write), (478 bytes).
    Removing ff.o(i.get_fileinfo), (322 bytes).
    Removing ff.o(i.pick_lfn), (136 bytes).
    Removing ff.o(i.putc_bfd), (68 bytes).
    Removing ff.o(i.putc_flush), (44 bytes).
    Removing ff.o(i.putc_init), (10 bytes).
    Removing ax12.o(i.axAnalizePing), (96 bytes).
    Removing ax12.o(i.axFlexible), (106 bytes).
    Removing ax12.o(i.axModifyID), (24 bytes).
    Removing ax12.o(i.axPing), (36 bytes).
    Removing ax12.o(i.axReset), (32 bytes).
    Removing ax12.o(i.axTorque), (32 bytes).
    Removing ax12.o(i.lx_usartx_senddat), (16 bytes).
    Removing jy61.o(i.jyStateIterator), (688 bytes).
    Removing jy61.o(.bss), (72 bytes).
    Removing jy61.o(.data), (16 bytes).
    Removing protocal.o(i.MESSAGE_Reply), (188 bytes).
    Removing protocal.o(i.Reply_GetServoConnection), (264 bytes).
    Removing protocal.o(i.pctCommandClassify), (308 bytes).
    Removing protocal.o(i.ptcClearCmdbuf), (18 bytes).
    Removing protocal.o(i.ptcGetCommand), (560 bytes).
    Removing protocal.o(i.ptc_usartx_senddat), (16 bytes).
    Removing file.o(i.DeleteActionFile_Function), (160 bytes).
    Removing file.o(i.DeleteOrderFile_Function), (136 bytes).
    Removing file.o(i.DownloadActionFile_Function), (668 bytes).
    Removing file.o(i.DownloadSequence_Function), (404 bytes).
    Removing file.o(i.EnableAllServo), (80 bytes).
    Removing file.o(i.ExcuteAction), (304 bytes).
    Removing file.o(i.ExcuteOrder), (216 bytes).
    Removing file.o(i.ExecuteActionFile_Function), (100 bytes).
    Removing file.o(i.ExecuteSequenceFile_Function), (76 bytes).
    Removing file.o(i.MoveServo_Function), (140 bytes).
    Removing file.o(i.PRINT_FREUSTL), (432 bytes).
    Removing file.o(i.ReNameActionFile_Function), (184 bytes).
    Removing file.o(i.SendFileCommand), (108 bytes).
    Removing file.o(i.UploadActionName_Function), (236 bytes).
    Removing file.o(i.UploadOrderFile_Function), (404 bytes).
    Removing file.o(i.UploadOrderName_Function), (236 bytes).
    Removing file.o(.constdata), (900 bytes).

527 unused section(s) (total 35092 bytes) removed from the image.

==============================================================================

Image Symbol Table

    Local Symbols

    Symbol Name                              Value     Ov Type        Size  Object(Section)

    ../clib/angel/boardlib.s                 0x00000000   Number         0  boardinit2.o ABSOLUTE
    ../clib/angel/boardlib.s                 0x00000000   Number         0  boardshut.o ABSOLUTE
    ../clib/angel/boardlib.s                 0x00000000   Number         0  boardinit1.o ABSOLUTE
    ../clib/angel/boardlib.s                 0x00000000   Number         0  boardinit3.o ABSOLUTE
    ../clib/angel/dczerorl2.s                0x00000000   Number         0  __dczerorl2.o ABSOLUTE
    ../clib/angel/handlers.s                 0x00000000   Number         0  __scatter_zi.o ABSOLUTE
    ../clib/angel/kernel.s                   0x00000000   Number         0  __rtentry4.o ABSOLUTE
    ../clib/angel/kernel.s                   0x00000000   Number         0  __rtentry2.o ABSOLUTE
    ../clib/angel/kernel.s                   0x00000000   Number         0  __rtentry.o ABSOLUTE
    ../clib/angel/kernel.s                   0x00000000   Number         0  rtexit2.o ABSOLUTE
    ../clib/angel/kernel.s                   0x00000000   Number         0  rtexit.o ABSOLUTE
    ../clib/angel/rt.s                       0x00000000   Number         0  rt_errno_addr.o ABSOLUTE
    ../clib/angel/rt.s                       0x00000000   Number         0  rt_errno_addr_intlibspace.o ABSOLUTE
    ../clib/angel/rt.s                       0x00000000   Number         0  rt_raise.o ABSOLUTE
    ../clib/angel/scatter.s                  0x00000000   Number         0  __scatter.o ABSOLUTE
    ../clib/angel/startup.s                  0x00000000   Number         0  __main.o ABSOLUTE
    ../clib/angel/sys.s                      0x00000000   Number         0  use_no_semi_2.o ABSOLUTE
    ../clib/angel/sys.s                      0x00000000   Number         0  sys_stackheap_outer.o ABSOLUTE
    ../clib/angel/sys.s                      0x00000000   Number         0  indicate_semi.o ABSOLUTE
    ../clib/angel/sys.s                      0x00000000   Number         0  use_no_semi.o ABSOLUTE
    ../clib/angel/sys.s                      0x00000000   Number         0  libspace.o ABSOLUTE
    ../clib/angel/sysapp.c                   0x00000000   Number         0  sys_command.o ABSOLUTE
    ../clib/angel/sysapp.c                   0x00000000   Number         0  sys_wrch.o ABSOLUTE
    ../clib/armsys.c                         0x00000000   Number         0  _get_argv_nomalloc.o ABSOLUTE
    ../clib/armsys.c                         0x00000000   Number         0  no_argv.o ABSOLUTE
    ../clib/armsys.c                         0x00000000   Number         0  argv_veneer.o ABSOLUTE
    ../clib/armsys.c                         0x00000000   Number         0  argv_veneer.o ABSOLUTE
    ../clib/fenv.c                           0x00000000   Number         0  _rserrno.o ABSOLUTE
    ../clib/heapalloc.c                      0x00000000   Number         0  hrguard.o ABSOLUTE
    ../clib/heapaux.c                        0x00000000   Number         0  heapauxi.o ABSOLUTE
    ../clib/libinit.s                        0x00000000   Number         0  libshutdown2.o ABSOLUTE
    ../clib/libinit.s                        0x00000000   Number         0  libshutdown.o ABSOLUTE
    ../clib/libinit.s                        0x00000000   Number         0  libinit.o ABSOLUTE
    ../clib/libinit.s                        0x00000000   Number         0  libinit2.o ABSOLUTE
    ../clib/memcpset.s                       0x00000000   Number         0  rt_memclr_w.o ABSOLUTE
    ../clib/memcpset.s                       0x00000000   Number         0  rt_memcpy_w.o ABSOLUTE
    ../clib/memcpset.s                       0x00000000   Number         0  rt_memclr.o ABSOLUTE
    ../clib/printf.c                         0x00000000   Number         0  _printf_dec.o ABSOLUTE
    ../clib/printf.c                         0x00000000   Number         0  __printf_ss_wp.o ABSOLUTE
    ../clib/printf.c                         0x00000000   Number         0  _sputc.o ABSOLUTE
    ../clib/printf.c                         0x00000000   Number         0  _printf_char_common.o ABSOLUTE
    ../clib/printf.c                         0x00000000   Number         0  __2printf.o ABSOLUTE
    ../clib/printf.c                         0x00000000   Number         0  _printf_intcommon.o ABSOLUTE
    ../clib/printf.c                         0x00000000   Number         0  _printf_char_file.o ABSOLUTE
    ../clib/printf.c                         0x00000000   Number         0  __printf.o ABSOLUTE
    ../clib/printf.c                         0x00000000   Number         0  __printf_nopercent.o ABSOLUTE
    ../clib/printf.c                         0x00000000   Number         0  noretval__2sprintf.o ABSOLUTE
    ../clib/printf.c                         0x00000000   Number         0  noretval__2printf.o ABSOLUTE
    ../clib/printf.c                         0x00000000   Number         0  __printf_flags_ss_wp.o ABSOLUTE
    ../clib/printf.c                         0x00000000   Number         0  __printf_flags_wp.o ABSOLUTE
    ../clib/printf.c                         0x00000000   Number         0  __printf_wp.o ABSOLUTE
    ../clib/printf.c                         0x00000000   Number         0  __2sprintf.o ABSOLUTE
    ../clib/printf.c                         0x00000000   Number         0  __printf_flags_ss.o ABSOLUTE
    ../clib/printf.c                         0x00000000   Number         0  __printf_ss.o ABSOLUTE
    ../clib/printf.c                         0x00000000   Number         0  __printf_flags.o ABSOLUTE
    ../clib/printf_percent.s                 0x00000000   Number         0  _printf_percent_end.o ABSOLUTE
    ../clib/printf_percent.s                 0x00000000   Number         0  _printf_percent.o ABSOLUTE
    ../clib/printf_percent.s                 0x00000000   Number         0  _printf_d.o ABSOLUTE
    ../clib/signal.c                         0x00000000   Number         0  defsig_segv_inner.o ABSOLUTE
    ../clib/signal.c                         0x00000000   Number         0  defsig_exit.o ABSOLUTE
    ../clib/signal.c                         0x00000000   Number         0  defsig_other.o ABSOLUTE
    ../clib/signal.c                         0x00000000   Number         0  defsig_fpe_inner.o ABSOLUTE
    ../clib/signal.c                         0x00000000   Number         0  defsig_abrt_inner.o ABSOLUTE
    ../clib/signal.c                         0x00000000   Number         0  defsig_rtred_inner.o ABSOLUTE
    ../clib/signal.c                         0x00000000   Number         0  defsig_stak_inner.o ABSOLUTE
    ../clib/signal.c                         0x00000000   Number         0  defsig_pvfn_inner.o ABSOLUTE
    ../clib/signal.c                         0x00000000   Number         0  defsig_cppl_inner.o ABSOLUTE
    ../clib/signal.c                         0x00000000   Number         0  __raise.o ABSOLUTE
    ../clib/signal.c                         0x00000000   Number         0  defsig_rtmem_inner.o ABSOLUTE
    ../clib/signal.c                         0x00000000   Number         0  defsig_general.o ABSOLUTE
    ../clib/signal.c                         0x00000000   Number         0  defsig_rtmem_formal.o ABSOLUTE
    ../clib/signal.c                         0x00000000   Number         0  defsig_rtmem_outer.o ABSOLUTE
    ../clib/signal.s                         0x00000000   Number         0  defsig.o ABSOLUTE
    ../clib/stdio.c                          0x00000000   Number         0  ferror.o ABSOLUTE
    ../clib/stdio.c                          0x00000000   Number         0  ferror_locked.o ABSOLUTE
    ../clib/stdlib.c                         0x00000000   Number         0  exit.o ABSOLUTE
    ../clib/string.c                         0x00000000   Number         0  strcat.o ABSOLUTE
    ../clib/string.c                         0x00000000   Number         0  strlen.o ABSOLUTE
    ../fplib/d2f.s                           0x00000000   Number         0  d2f.o ABSOLUTE
    ../fplib/daddsub.s                       0x00000000   Number         0  daddsub_clz.o ABSOLUTE
    ../fplib/dcheck1.s                       0x00000000   Number         0  dcheck1.o ABSOLUTE
    ../fplib/dcmpi.s                         0x00000000   Number         0  dcmpi.o ABSOLUTE
    ../fplib/ddiv.s                          0x00000000   Number         0  ddiv.o ABSOLUTE
    ../fplib/dfix.s                          0x00000000   Number         0  dfix.o ABSOLUTE
    ../fplib/dfixu.s                         0x00000000   Number         0  dfixu.o ABSOLUTE
    ../fplib/dflt.s                          0x00000000   Number         0  dflt_clz.o ABSOLUTE
    ../fplib/dleqf.s                         0x00000000   Number         0  dleqf.o ABSOLUTE
    ../fplib/dmul.s                          0x00000000   Number         0  dmul.o ABSOLUTE
    ../fplib/dnaninf.s                       0x00000000   Number         0  dnaninf.o ABSOLUTE
    ../fplib/dretinf.s                       0x00000000   Number         0  dretinf.o ABSOLUTE
    ../fplib/drleqf.s                        0x00000000   Number         0  drleqf.o ABSOLUTE
    ../fplib/f2d.s                           0x00000000   Number         0  f2d.o ABSOLUTE
    ../fplib/faddsub.s                       0x00000000   Number         0  faddsub_clz.o ABSOLUTE
    ../fplib/ffixu.s                         0x00000000   Number         0  ffixu.o ABSOLUTE
    ../fplib/fflt.s                          0x00000000   Number         0  fflt_clz.o ABSOLUTE
    ../fplib/fmul.s                          0x00000000   Number         0  fmul.o ABSOLUTE
    ../fplib/fnaninf.s                       0x00000000   Number         0  fnaninf.o ABSOLUTE
    ../fplib/fpinit.s                        0x00000000   Number         0  fpinit.o ABSOLUTE
    ../fplib/fretinf.s                       0x00000000   Number         0  fretinf.o ABSOLUTE
    ../fplib/retnan.s                        0x00000000   Number         0  retnan.o ABSOLUTE
    ../fplib/scalbn.s                        0x00000000   Number         0  scalbn.o ABSOLUTE
    ../fplib/trapv.s                         0x00000000   Number         0  trapv.o ABSOLUTE
    ../fplib/usenofp.s                       0x00000000   Number         0  usenofp.o ABSOLUTE
    ../mathlib/cos_i.c                       0x00000000   Number         0  cos_i.o ABSOLUTE
    ../mathlib/dunder.c                      0x00000000   Number         0  dunder.o ABSOLUTE
    ../mathlib/fpclassify.c                  0x00000000   Number         0  fpclassify.o ABSOLUTE
    ../mathlib/poly.c                        0x00000000   Number         0  poly.o ABSOLUTE
    ../mathlib/rred.c                        0x00000000   Number         0  rred.o ABSOLUTE
    ../mathlib/sin.c                         0x00000000   Number         0  sin.o ABSOLUTE
    ../mathlib/sin.c                         0x00000000   Number         0  sin_x.o ABSOLUTE
    ../mathlib/sin_i.c                       0x00000000   Number         0  sin_i_x.o ABSOLUTE
    ../mathlib/sin_i.c                       0x00000000   Number         0  sin_i.o ABSOLUTE
    ..\APP\file\file.c                       0x00000000   Number         0  file.o ABSOLUTE
    ..\APP\protocal\protocal.c               0x00000000   Number         0  protocal.o ABSOLUTE
    ..\CORE\core_cm3.c                       0x00000000   Number         0  core_cm3.o ABSOLUTE
    ..\CORE\startup_stm32f10x_hd.s           0x00000000   Number         0  startup_stm32f10x_hd.o ABSOLUTE
    ..\DEVICE\FATFS\diskio.c                 0x00000000   Number         0  diskio.o ABSOLUTE
    ..\DEVICE\FATFS\ff.c                     0x00000000   Number         0  ff.o ABSOLUTE
    ..\DEVICE\FATFS\option\ccsbcs.c          0x00000000   Number         0  ccsbcs.o ABSOLUTE
    ..\DEVICE\ax12\ax12.c                    0x00000000   Number         0  ax12.o ABSOLUTE
    ..\DEVICE\jy61\jy61.c                    0x00000000   Number         0  jy61.o ABSOLUTE
    ..\HARDWARE\config\config.c              0x00000000   Number         0  config.o ABSOLUTE
    ..\HARDWARE\dma\dma.c                    0x00000000   Number         0  dma.o ABSOLUTE
    ..\HARDWARE\intconfig\intconfig.c        0x00000000   Number         0  intconfig.o ABSOLUTE
    ..\HARDWARE\key\key.c                    0x00000000   Number         0  key.o ABSOLUTE
    ..\HARDWARE\led\led.c                    0x00000000   Number         0  led.o ABSOLUTE
    ..\HARDWARE\pwm\pwm.c                    0x00000000   Number         0  pwm.o ABSOLUTE
    ..\HARDWARE\sdio\sdio_sdcard.c           0x00000000   Number         0  sdio_sdcard.o ABSOLUTE
    ..\HARDWARE\timer\timer.c                0x00000000   Number         0  timer.o ABSOLUTE
    ..\HARDWARE\usart1\usart1.c              0x00000000   Number         0  usart1.o ABSOLUTE
    ..\HARDWARE\usart2\usart2.c              0x00000000   Number         0  usart2.o ABSOLUTE
    ..\HARDWARE\usart3\usart3.c              0x00000000   Number         0  usart3.o ABSOLUTE
    ..\HARDWARE\usart_tren\usart_tren.c      0x00000000   Number         0  usart_tren.o ABSOLUTE
    ..\HARDWARE\ustdout\ustdout.c            0x00000000   Number         0  ustdout.o ABSOLUTE
    ..\STM32F10x_FWLib\src\misc.c            0x00000000   Number         0  misc.o ABSOLUTE
    ..\STM32F10x_FWLib\src\stm32f10x_adc.c   0x00000000   Number         0  stm32f10x_adc.o ABSOLUTE
    ..\STM32F10x_FWLib\src\stm32f10x_bkp.c   0x00000000   Number         0  stm32f10x_bkp.o ABSOLUTE
    ..\STM32F10x_FWLib\src\stm32f10x_can.c   0x00000000   Number         0  stm32f10x_can.o ABSOLUTE
    ..\STM32F10x_FWLib\src\stm32f10x_cec.c   0x00000000   Number         0  stm32f10x_cec.o ABSOLUTE
    ..\STM32F10x_FWLib\src\stm32f10x_crc.c   0x00000000   Number         0  stm32f10x_crc.o ABSOLUTE
    ..\STM32F10x_FWLib\src\stm32f10x_dac.c   0x00000000   Number         0  stm32f10x_dac.o ABSOLUTE
    ..\STM32F10x_FWLib\src\stm32f10x_dbgmcu.c 0x00000000   Number         0  stm32f10x_dbgmcu.o ABSOLUTE
    ..\STM32F10x_FWLib\src\stm32f10x_dma.c   0x00000000   Number         0  stm32f10x_dma.o ABSOLUTE
    ..\STM32F10x_FWLib\src\stm32f10x_exti.c  0x00000000   Number         0  stm32f10x_exti.o ABSOLUTE
    ..\STM32F10x_FWLib\src\stm32f10x_flash.c 0x00000000   Number         0  stm32f10x_flash.o ABSOLUTE
    ..\STM32F10x_FWLib\src\stm32f10x_fsmc.c  0x00000000   Number         0  stm32f10x_fsmc.o ABSOLUTE
    ..\STM32F10x_FWLib\src\stm32f10x_gpio.c  0x00000000   Number         0  stm32f10x_gpio.o ABSOLUTE
    ..\STM32F10x_FWLib\src\stm32f10x_i2c.c   0x00000000   Number         0  stm32f10x_i2c.o ABSOLUTE
    ..\STM32F10x_FWLib\src\stm32f10x_iwdg.c  0x00000000   Number         0  stm32f10x_iwdg.o ABSOLUTE
    ..\STM32F10x_FWLib\src\stm32f10x_pwr.c   0x00000000   Number         0  stm32f10x_pwr.o ABSOLUTE
    ..\STM32F10x_FWLib\src\stm32f10x_rcc.c   0x00000000   Number         0  stm32f10x_rcc.o ABSOLUTE
    ..\STM32F10x_FWLib\src\stm32f10x_rtc.c   0x00000000   Number         0  stm32f10x_rtc.o ABSOLUTE
    ..\STM32F10x_FWLib\src\stm32f10x_sdio.c  0x00000000   Number         0  stm32f10x_sdio.o ABSOLUTE
    ..\STM32F10x_FWLib\src\stm32f10x_spi.c   0x00000000   Number         0  stm32f10x_spi.o ABSOLUTE
    ..\STM32F10x_FWLib\src\stm32f10x_tim.c   0x00000000   Number         0  stm32f10x_tim.o ABSOLUTE
    ..\STM32F10x_FWLib\src\stm32f10x_usart.c 0x00000000   Number         0  stm32f10x_usart.o ABSOLUTE
    ..\STM32F10x_FWLib\src\stm32f10x_wwdg.c  0x00000000   Number         0  stm32f10x_wwdg.o ABSOLUTE
    ..\SYSTEM\delay\delay.c                  0x00000000   Number         0  delay.o ABSOLUTE
    ..\SYSTEM\sys\sys.c                      0x00000000   Number         0  sys.o ABSOLUTE
    ..\\CORE\\core_cm3.c                     0x00000000   Number         0  core_cm3.o ABSOLUTE
    ..\\SYSTEM\\sys\\sys.c                   0x00000000   Number         0  sys.o ABSOLUTE
    Action.c                                 0x00000000   Number         0  action.o ABSOLUTE
    dc.s                                     0x00000000   Number         0  dc.o ABSOLUTE
    main.c                                   0x00000000   Number         0  main.o ABSOLUTE
    stm32f10x_it.c                           0x00000000   Number         0  stm32f10x_it.o ABSOLUTE
    system_stm32f10x.c                       0x00000000   Number         0  system_stm32f10x.o ABSOLUTE
    RESET                                    0x08000000   Section      304  startup_stm32f10x_hd.o(RESET)
    !!!main                                  0x08000130   Section        8  __main.o(!!!main)
    !!!scatter                               0x08000138   Section       52  __scatter.o(!!!scatter)
    !!dczerorl2                              0x0800016c   Section       90  __dczerorl2.o(!!dczerorl2)
    !!handler_zi                             0x080001c8   Section       28  __scatter_zi.o(!!handler_zi)
    .ARM.Collect$$_printf_percent$$00000000  0x080001e4   Section        0  _printf_percent.o(.ARM.Collect$$_printf_percent$$00000000)
    .ARM.Collect$$_printf_percent$$00000017  0x080001e4   Section        4  _printf_percent_end.o(.ARM.Collect$$_printf_percent$$00000017)
    .ARM.Collect$$libinit$$00000000          0x080001e8   Section        2  libinit.o(.ARM.Collect$$libinit$$00000000)
    .ARM.Collect$$libinit$$00000002          0x080001ea   Section        0  libinit2.o(.ARM.Collect$$libinit$$00000002)
    .ARM.Collect$$libinit$$00000004          0x080001ea   Section        0  libinit2.o(.ARM.Collect$$libinit$$00000004)
    .ARM.Collect$$libinit$$0000000A          0x080001ea   Section        0  libinit2.o(.ARM.Collect$$libinit$$0000000A)
    .ARM.Collect$$libinit$$0000000C          0x080001ea   Section        0  libinit2.o(.ARM.Collect$$libinit$$0000000C)
    .ARM.Collect$$libinit$$0000000E          0x080001ea   Section        0  libinit2.o(.ARM.Collect$$libinit$$0000000E)
    .ARM.Collect$$libinit$$00000011          0x080001ea   Section        0  libinit2.o(.ARM.Collect$$libinit$$00000011)
    .ARM.Collect$$libinit$$00000013          0x080001ea   Section        0  libinit2.o(.ARM.Collect$$libinit$$00000013)
    .ARM.Collect$$libinit$$00000015          0x080001ea   Section        0  libinit2.o(.ARM.Collect$$libinit$$00000015)
    .ARM.Collect$$libinit$$00000017          0x080001ea   Section        0  libinit2.o(.ARM.Collect$$libinit$$00000017)
    .ARM.Collect$$libinit$$00000019          0x080001ea   Section        0  libinit2.o(.ARM.Collect$$libinit$$00000019)
    .ARM.Collect$$libinit$$0000001B          0x080001ea   Section        0  libinit2.o(.ARM.Collect$$libinit$$0000001B)
    .ARM.Collect$$libinit$$0000001D          0x080001ea   Section        0  libinit2.o(.ARM.Collect$$libinit$$0000001D)
    .ARM.Collect$$libinit$$0000001F          0x080001ea   Section        0  libinit2.o(.ARM.Collect$$libinit$$0000001F)
    .ARM.Collect$$libinit$$00000021          0x080001ea   Section        0  libinit2.o(.ARM.Collect$$libinit$$00000021)
    .ARM.Collect$$libinit$$00000023          0x080001ea   Section        0  libinit2.o(.ARM.Collect$$libinit$$00000023)
    .ARM.Collect$$libinit$$00000025          0x080001ea   Section        0  libinit2.o(.ARM.Collect$$libinit$$00000025)
    .ARM.Collect$$libinit$$0000002C          0x080001ea   Section        0  libinit2.o(.ARM.Collect$$libinit$$0000002C)
    .ARM.Collect$$libinit$$0000002E          0x080001ea   Section        0  libinit2.o(.ARM.Collect$$libinit$$0000002E)
    .ARM.Collect$$libinit$$00000030          0x080001ea   Section        0  libinit2.o(.ARM.Collect$$libinit$$00000030)
    .ARM.Collect$$libinit$$00000032          0x080001ea   Section        0  libinit2.o(.ARM.Collect$$libinit$$00000032)
    .ARM.Collect$$libinit$$00000033          0x080001ea   Section        2  libinit2.o(.ARM.Collect$$libinit$$00000033)
    .ARM.Collect$$libshutdown$$00000000      0x080001ec   Section        2  libshutdown.o(.ARM.Collect$$libshutdown$$00000000)
    .ARM.Collect$$libshutdown$$00000003      0x080001ee   Section        0  libshutdown2.o(.ARM.Collect$$libshutdown$$00000003)
    .ARM.Collect$$libshutdown$$00000006      0x080001ee   Section        0  libshutdown2.o(.ARM.Collect$$libshutdown$$00000006)
    .ARM.Collect$$libshutdown$$00000009      0x080001ee   Section        0  libshutdown2.o(.ARM.Collect$$libshutdown$$00000009)
    .ARM.Collect$$libshutdown$$0000000B      0x080001ee   Section        0  libshutdown2.o(.ARM.Collect$$libshutdown$$0000000B)
    .ARM.Collect$$libshutdown$$0000000E      0x080001ee   Section        0  libshutdown2.o(.ARM.Collect$$libshutdown$$0000000E)
    .ARM.Collect$$libshutdown$$0000000F      0x080001ee   Section        2  libshutdown2.o(.ARM.Collect$$libshutdown$$0000000F)
    .ARM.Collect$$rtentry$$00000000          0x080001f0   Section        0  __rtentry.o(.ARM.Collect$$rtentry$$00000000)
    .ARM.Collect$$rtentry$$00000002          0x080001f0   Section        0  __rtentry2.o(.ARM.Collect$$rtentry$$00000002)
    .ARM.Collect$$rtentry$$00000004          0x080001f0   Section        6  __rtentry4.o(.ARM.Collect$$rtentry$$00000004)
    .ARM.Collect$$rtentry$$00000009          0x080001f6   Section        0  __rtentry2.o(.ARM.Collect$$rtentry$$00000009)
    .ARM.Collect$$rtentry$$0000000A          0x080001f6   Section        4  __rtentry2.o(.ARM.Collect$$rtentry$$0000000A)
    .ARM.Collect$$rtentry$$0000000C          0x080001fa   Section        0  __rtentry2.o(.ARM.Collect$$rtentry$$0000000C)
    .ARM.Collect$$rtentry$$0000000D          0x080001fa   Section        8  __rtentry2.o(.ARM.Collect$$rtentry$$0000000D)
    .ARM.Collect$$rtexit$$00000000           0x08000202   Section        2  rtexit.o(.ARM.Collect$$rtexit$$00000000)
    .ARM.Collect$$rtexit$$00000002           0x08000204   Section        0  rtexit2.o(.ARM.Collect$$rtexit$$00000002)
    .ARM.Collect$$rtexit$$00000003           0x08000204   Section        4  rtexit2.o(.ARM.Collect$$rtexit$$00000003)
    .ARM.Collect$$rtexit$$00000004           0x08000208   Section        6  rtexit2.o(.ARM.Collect$$rtexit$$00000004)
    .text                                    0x08000210   Section       64  startup_stm32f10x_hd.o(.text)
    .text                                    0x08000250   Section        2  use_no_semi_2.o(.text)
    .text                                    0x08000254   Section        0  noretval__2sprintf.o(.text)
    .text                                    0x0800027c   Section        0  __printf.o(.text)
    .text                                    0x080002e4   Section        0  strlen.o(.text)
    .text                                    0x08000322   Section       78  rt_memclr_w.o(.text)
    .text                                    0x08000370   Section        0  heapauxi.o(.text)
    .text                                    0x08000376   Section        2  use_no_semi.o(.text)
    .text                                    0x08000378   Section        0  _rserrno.o(.text)
    .text                                    0x08000390   Section        0  _printf_char_common.o(.text)
    _printf_input_char                       0x08000391   Thumb Code    10  _printf_char_common.o(.text)
    .text                                    0x080003c0   Section        0  _sputc.o(.text)
    .text                                    0x080003cc   Section        8  rt_errno_addr_intlibspace.o(.text)
    .text                                    0x080003d4   Section        8  libspace.o(.text)
    .text                                    0x080003dc   Section       74  sys_stackheap_outer.o(.text)
    .text                                    0x08000426   Section        0  exit.o(.text)
    i.Arm_down                               0x08000432   Section        0  action.o(i.Arm_down)
    i.Arm_lean_backward                      0x08000456   Section        0  action.o(i.Arm_lean_backward)
    i.Arm_lean_forward                       0x0800049e   Section        0  action.o(i.Arm_lean_forward)
    i.Arm_turn_left                          0x080004e6   Section        0  action.o(i.Arm_turn_left)
    i.Arm_turn_right                         0x0800050a   Section        0  action.o(i.Arm_turn_right)
    i.Arm_up                                 0x0800052e   Section        0  action.o(i.Arm_up)
    i.BusFault_Handler                       0x08000552   Section        0  stm32f10x_it.o(i.BusFault_Handler)
    i.CmdError                               0x08000556   Section        0  sdio_sdcard.o(i.CmdError)
    CmdError                                 0x08000557   Thumb Code    44  sdio_sdcard.o(i.CmdError)
    i.CmdResp1Error                          0x08000584   Section        0  sdio_sdcard.o(i.CmdResp1Error)
    CmdResp1Error                            0x08000585   Thumb Code    36  sdio_sdcard.o(i.CmdResp1Error)
    i.CmdResp2Error                          0x080005ac   Section        0  sdio_sdcard.o(i.CmdResp2Error)
    CmdResp2Error                            0x080005ad   Thumb Code    70  sdio_sdcard.o(i.CmdResp2Error)
    i.CmdResp3Error                          0x080005f8   Section        0  sdio_sdcard.o(i.CmdResp3Error)
    CmdResp3Error                            0x080005f9   Thumb Code    52  sdio_sdcard.o(i.CmdResp3Error)
    i.CmdResp6Error                          0x08000630   Section        0  sdio_sdcard.o(i.CmdResp6Error)
    CmdResp6Error                            0x08000631   Thumb Code   152  sdio_sdcard.o(i.CmdResp6Error)
    i.CmdResp7Error                          0x080006cc   Section        0  sdio_sdcard.o(i.CmdResp7Error)
    CmdResp7Error                            0x080006cd   Thumb Code    72  sdio_sdcard.o(i.CmdResp7Error)
    i.Come_up                                0x08000718   Section        0  action.o(i.Come_up)
    i.DMA1_Channel2_IRQHandler               0x08000778   Section        0  dma.o(i.DMA1_Channel2_IRQHandler)
    i.DMA_ClearFlag                          0x080007a4   Section        0  stm32f10x_dma.o(i.DMA_ClearFlag)
    i.DMA_Cmd                                0x080007c0   Section        0  stm32f10x_dma.o(i.DMA_Cmd)
    i.DMA_GetFlagStatus                      0x080007d8   Section        0  stm32f10x_dma.o(i.DMA_GetFlagStatus)
    i.DMA_Init                               0x08000804   Section        0  stm32f10x_dma.o(i.DMA_Init)
    i.DebugMon_Handler                       0x08000840   Section        0  stm32f10x_it.o(i.DebugMon_Handler)
    i.Dive                                   0x08000844   Section        0  action.o(i.Dive)
    i.EXTI1_IRQHandler                       0x080008a4   Section        0  key.o(i.EXTI1_IRQHandler)
    i.EXTIX_Init                             0x08000908   Section        0  key.o(i.EXTIX_Init)
    i.EXTI_ClearITPendingBit                 0x08000944   Section        0  stm32f10x_exti.o(i.EXTI_ClearITPendingBit)
    i.EXTI_Init                              0x08000950   Section        0  stm32f10x_exti.o(i.EXTI_Init)
    i.ExAction                               0x080009e4   Section        0  action.o(i.ExAction)
    i.FileSystemInit                         0x08000a80   Section        0  file.o(i.FileSystemInit)
    i.FindSCR                                0x08000af8   Section        0  sdio_sdcard.o(i.FindSCR)
    FindSCR                                  0x08000af9   Thumb Code   394  sdio_sdcard.o(i.FindSCR)
    i.GPIO_EXTILineConfig                    0x08000c94   Section        0  stm32f10x_gpio.o(i.GPIO_EXTILineConfig)
    i.GPIO_Init                              0x08000cd4   Section        0  stm32f10x_gpio.o(i.GPIO_Init)
    i.GPIO_SetBits                           0x08000dea   Section        0  stm32f10x_gpio.o(i.GPIO_SetBits)
    i.Go_forward                             0x08000df0   Section        0  action.o(i.Go_forward)
    i.HardFault_Handler                      0x08000f24   Section        0  stm32f10x_it.o(i.HardFault_Handler)
    i.LED_Init                               0x08000f28   Section        0  led.o(i.LED_Init)
    i.LobotCheckSum                          0x08000f8c   Section        0  ax12.o(i.LobotCheckSum)
    i.MemManage_Handler                      0x08000fae   Section        0  stm32f10x_it.o(i.MemManage_Handler)
    i.NMI_Handler                            0x08000fb2   Section        0  stm32f10x_it.o(i.NMI_Handler)
    i.NVIC_Init                              0x08000fb4   Section        0  misc.o(i.NVIC_Init)
    i.PendSV_Handler                         0x08001024   Section        0  stm32f10x_it.o(i.PendSV_Handler)
    i.RCC_AHBPeriphClockCmd                  0x08001028   Section        0  stm32f10x_rcc.o(i.RCC_AHBPeriphClockCmd)
    i.RCC_APB1PeriphClockCmd                 0x08001048   Section        0  stm32f10x_rcc.o(i.RCC_APB1PeriphClockCmd)
    i.RCC_APB2PeriphClockCmd                 0x08001068   Section        0  stm32f10x_rcc.o(i.RCC_APB2PeriphClockCmd)
    i.RCC_GetClocksFreq                      0x08001088   Section        0  stm32f10x_rcc.o(i.RCC_GetClocksFreq)
    i.SDEnWideBus                            0x0800115c   Section        0  sdio_sdcard.o(i.SDEnWideBus)
    SDEnWideBus                              0x0800115d   Thumb Code   274  sdio_sdcard.o(i.SDEnWideBus)
    i.SDIO_ClearFlag                         0x08001278   Section        0  stm32f10x_sdio.o(i.SDIO_ClearFlag)
    i.SDIO_ClockCmd                          0x08001284   Section        0  stm32f10x_sdio.o(i.SDIO_ClockCmd)
    i.SDIO_DMACmd                            0x08001290   Section        0  stm32f10x_sdio.o(i.SDIO_DMACmd)
    i.SDIO_DataConfig                        0x0800129c   Section        0  stm32f10x_sdio.o(i.SDIO_DataConfig)
    i.SDIO_DeInit                            0x080012cc   Section        0  stm32f10x_sdio.o(i.SDIO_DeInit)
    i.SDIO_GetCommandResponse                0x080012f0   Section        0  stm32f10x_sdio.o(i.SDIO_GetCommandResponse)
    i.SDIO_GetFlagStatus                     0x080012fc   Section        0  stm32f10x_sdio.o(i.SDIO_GetFlagStatus)
    i.SDIO_GetPowerState                     0x08001314   Section        0  stm32f10x_sdio.o(i.SDIO_GetPowerState)
    i.SDIO_GetResponse                       0x08001324   Section        0  stm32f10x_sdio.o(i.SDIO_GetResponse)
    i.SDIO_ITConfig                          0x0800133c   Section        0  stm32f10x_sdio.o(i.SDIO_ITConfig)
    i.SDIO_Init                              0x0800135c   Section        0  stm32f10x_sdio.o(i.SDIO_Init)
    i.SDIO_ReadData                          0x0800138c   Section        0  stm32f10x_sdio.o(i.SDIO_ReadData)
    i.SDIO_SendCommand                       0x08001398   Section        0  stm32f10x_sdio.o(i.SDIO_SendCommand)
    i.SDIO_SetPowerState                     0x080013c4   Section        0  stm32f10x_sdio.o(i.SDIO_SetPowerState)
    i.SD_DMAEndOfTransferStatus              0x080013e0   Section        0  sdio_sdcard.o(i.SD_DMAEndOfTransferStatus)
    SD_DMAEndOfTransferStatus                0x080013e1   Thumb Code    10  sdio_sdcard.o(i.SD_DMAEndOfTransferStatus)
    i.SD_DMA_RxConfig                        0x080013f0   Section        0  sdio_sdcard.o(i.SD_DMA_RxConfig)
    SD_DMA_RxConfig                          0x080013f1   Thumb Code    86  sdio_sdcard.o(i.SD_DMA_RxConfig)
    i.SD_DMA_TxConfig                        0x08001454   Section        0  sdio_sdcard.o(i.SD_DMA_TxConfig)
    SD_DMA_TxConfig                          0x08001455   Thumb Code    86  sdio_sdcard.o(i.SD_DMA_TxConfig)
    i.SD_EnableWideBusOperation              0x080014b8   Section        0  sdio_sdcard.o(i.SD_EnableWideBusOperation)
    i.SD_GPIO_Configuration                  0x0800154c   Section        0  sdio_sdcard.o(i.SD_GPIO_Configuration)
    SD_GPIO_Configuration                    0x0800154d   Thumb Code    70  sdio_sdcard.o(i.SD_GPIO_Configuration)
    i.SD_GetCardInfo                         0x0800159c   Section        0  sdio_sdcard.o(i.SD_GetCardInfo)
    i.SD_GetState                            0x08001868   Section        0  sdio_sdcard.o(i.SD_GetState)
    i.SD_GetStatus                           0x08001882   Section        0  sdio_sdcard.o(i.SD_GetStatus)
    i.SD_Init                                0x080018a0   Section        0  sdio_sdcard.o(i.SD_Init)
    i.SD_InitializeCards                     0x08001910   Section        0  sdio_sdcard.o(i.SD_InitializeCards)
    i.SD_PowerON                             0x08001a4c   Section        0  sdio_sdcard.o(i.SD_PowerON)
    i.SD_ReadBlock                           0x08001bd4   Section        0  sdio_sdcard.o(i.SD_ReadBlock)
    i.SD_SelectDeselect                      0x08001cb0   Section        0  sdio_sdcard.o(i.SD_SelectDeselect)
    i.SD_SendStatus                          0x08001ce4   Section        0  sdio_sdcard.o(i.SD_SendStatus)
    i.SD_WaitReadOperation                   0x08001d1c   Section        0  sdio_sdcard.o(i.SD_WaitReadOperation)
    i.SD_WaitWriteOperation                  0x08001d50   Section        0  sdio_sdcard.o(i.SD_WaitWriteOperation)
    i.SD_WriteBlock                          0x08001d8c   Section        0  sdio_sdcard.o(i.SD_WriteBlock)
    i.SD_WriteMultiBlocks                    0x08001e68   Section        0  sdio_sdcard.o(i.SD_WriteMultiBlocks)
    i.SVC_Handler                            0x08001fb0   Section        0  stm32f10x_it.o(i.SVC_Handler)
    i.SetSysClock                            0x08001fb2   Section        0  system_stm32f10x.o(i.SetSysClock)
    SetSysClock                              0x08001fb3   Thumb Code     8  system_stm32f10x.o(i.SetSysClock)
    i.SetSysClockTo72                        0x08001fbc   Section        0  system_stm32f10x.o(i.SetSysClockTo72)
    SetSysClockTo72                          0x08001fbd   Thumb Code   214  system_stm32f10x.o(i.SetSysClockTo72)
    i.Shou_qi                                0x0800209c   Section        0  action.o(i.Shou_qi)
    i.Speed_down                             0x080020b0   Section        0  action.o(i.Speed_down)
    i.Speed_up                               0x0800212c   Section        0  action.o(i.Speed_up)
    i.SysTick_CLKSourceConfig                0x080021a8   Section        0  misc.o(i.SysTick_CLKSourceConfig)
    i.SysTick_Handler                        0x080021d0   Section        0  stm32f10x_it.o(i.SysTick_Handler)
    i.SystemInit                             0x080021d4   Section        0  system_stm32f10x.o(i.SystemInit)
    i.TIM2_IRQHandler                        0x08002234   Section        0  timer.o(i.TIM2_IRQHandler)
    i.TIM2_Init                              0x08002258   Section        0  timer.o(i.TIM2_Init)
    i.TIM4_IRQHandler                        0x080022a4   Section        0  pwm.o(i.TIM4_IRQHandler)
    i.TIM_ClearITPendingBit                  0x08002364   Section        0  stm32f10x_tim.o(i.TIM_ClearITPendingBit)
    i.TIM_Cmd                                0x0800236a   Section        0  stm32f10x_tim.o(i.TIM_Cmd)
    i.TIM_GetITStatus                        0x08002382   Section        0  stm32f10x_tim.o(i.TIM_GetITStatus)
    i.TIM_ITConfig                           0x080023a4   Section        0  stm32f10x_tim.o(i.TIM_ITConfig)
    i.TIM_TimeBaseInit                       0x080023b8   Section        0  stm32f10x_tim.o(i.TIM_TimeBaseInit)
    i.Turn_left                              0x0800245c   Section        0  action.o(i.Turn_left)
    i.Turn_right                             0x08002590   Section        0  action.o(i.Turn_right)
    i.USART1_IRQHandler                      0x080026c4   Section        0  usart1.o(i.USART1_IRQHandler)
    i.USART2_IRQHandler                      0x08002804   Section        0  usart2.o(i.USART2_IRQHandler)
    i.USART3_IRQHandler                      0x08002838   Section        0  usart3.o(i.USART3_IRQHandler)
    i.USART_Init                             0x0800286c   Section        0  stm32f10x_usart.o(i.USART_Init)
    i.UsageFault_Handler                     0x08002944   Section        0  stm32f10x_it.o(i.UsageFault_Handler)
    i.__ARM_fpclassify                       0x08002948   Section        0  fpclassify.o(i.__ARM_fpclassify)
    i.__ieee754_rem_pio2                     0x08002970   Section        0  rred.o(i.__ieee754_rem_pio2)
    i.__kernel_cos                           0x08002cf8   Section        0  cos_i.o(i.__kernel_cos)
    i.__kernel_poly                          0x08002df4   Section        0  poly.o(i.__kernel_poly)
    i.__kernel_sin                           0x08002ea0   Section        0  sin_i.o(i.__kernel_sin)
    i.__mathlib_dbl_infnan                   0x08002f8c   Section        0  dunder.o(i.__mathlib_dbl_infnan)
    i.__mathlib_dbl_invalid                  0x08002f92   Section        0  dunder.o(i.__mathlib_dbl_invalid)
    i.__mathlib_dbl_underflow                0x08002fa0   Section        0  dunder.o(i.__mathlib_dbl_underflow)
    i._sys_exit                              0x08002fb0   Section        0  ustdout.o(i._sys_exit)
    i.axAllPosition                          0x08002fb4   Section        0  ax12.o(i.axAllPosition)
    i.axAnalizePosition                      0x08002fde   Section        0  ax12.o(i.axAnalizePosition)
    i.axGetPosition                          0x0800303c   Section        0  ax12.o(i.axGetPosition)
    i.axSendPack                             0x08003098   Section        0  ax12.o(i.axSendPack)
    i.axSendPosition                         0x0800311a   Section        0  ax12.o(i.axSendPosition)
    i.ax_usartx_senddat                      0x08003156   Section        0  ax12.o(i.ax_usartx_senddat)
    i.check_fs                               0x08003168   Section        0  ff.o(i.check_fs)
    check_fs                                 0x08003169   Thumb Code   116  ff.o(i.check_fs)
    i.chk_chr                                0x080031e4   Section        0  ff.o(i.chk_chr)
    chk_chr                                  0x080031e5   Thumb Code    20  ff.o(i.chk_chr)
    i.clust2sect                             0x080031f8   Section        0  ff.o(i.clust2sect)
    clust2sect                               0x080031f9   Thumb Code    26  ff.o(i.clust2sect)
    i.cmp_lfn                                0x08003214   Section        0  ff.o(i.cmp_lfn)
    cmp_lfn                                  0x08003215   Thumb Code   148  ff.o(i.cmp_lfn)
    i.create_chain                           0x080032ac   Section        0  ff.o(i.create_chain)
    create_chain                             0x080032ad   Thumb Code   224  ff.o(i.create_chain)
    i.create_name                            0x0800338c   Section        0  ff.o(i.create_name)
    create_name                              0x0800338d   Thumb Code   534  ff.o(i.create_name)
    i.delay_init                             0x080035bc   Section        0  delay.o(i.delay_init)
    i.delay_ms                               0x08003600   Section        0  delay.o(i.delay_ms)
    i.dir_alloc                              0x0800364c   Section        0  ff.o(i.dir_alloc)
    dir_alloc                                0x0800364d   Thumb Code    96  ff.o(i.dir_alloc)
    i.dir_find                               0x080036ac   Section        0  ff.o(i.dir_find)
    dir_find                                 0x080036ad   Thumb Code   252  ff.o(i.dir_find)
    i.dir_next                               0x080037a8   Section        0  ff.o(i.dir_next)
    dir_next                                 0x080037a9   Thumb Code   268  ff.o(i.dir_next)
    i.dir_register                           0x080038b4   Section        0  ff.o(i.dir_register)
    dir_register                             0x080038b5   Thumb Code   322  ff.o(i.dir_register)
    i.dir_sdi                                0x080039f6   Section        0  ff.o(i.dir_sdi)
    dir_sdi                                  0x080039f7   Thumb Code   154  ff.o(i.dir_sdi)
    i.disk_initialize                        0x08003a90   Section        0  diskio.o(i.disk_initialize)
    i.disk_ioctl                             0x08003aa4   Section        0  diskio.o(i.disk_ioctl)
    i.disk_read                              0x08003ad8   Section        0  diskio.o(i.disk_read)
    i.disk_status                            0x08003b12   Section        0  diskio.o(i.disk_status)
    i.disk_write                             0x08003b18   Section        0  diskio.o(i.disk_write)
    i.f_closedir                             0x08003b66   Section        0  ff.o(i.f_closedir)
    i.f_mkdir                                0x08003b7e   Section        0  ff.o(i.f_mkdir)
    i.f_mount                                0x08003cdc   Section        0  ff.o(i.f_mount)
    i.f_opendir                              0x08003d38   Section        0  ff.o(i.f_opendir)
    i.ff_convert                             0x08003da8   Section        0  ccsbcs.o(i.ff_convert)
    i.ff_wtoupper                            0x08003df4   Section        0  ccsbcs.o(i.ff_wtoupper)
    i.find_volume                            0x08003e98   Section        0  ff.o(i.find_volume)
    find_volume                              0x08003e99   Thumb Code   748  ff.o(i.find_volume)
    i.follow_path                            0x08004198   Section        0  ff.o(i.follow_path)
    follow_path                              0x08004199   Thumb Code   162  ff.o(i.follow_path)
    i.gen_numname                            0x0800423c   Section        0  ff.o(i.gen_numname)
    gen_numname                              0x0800423d   Thumb Code   176  ff.o(i.gen_numname)
    i.get_fat                                0x080042f0   Section        0  ff.o(i.get_fat)
    get_fat                                  0x080042f1   Thumb Code   224  ff.o(i.get_fat)
    i.get_fattime                            0x080043d0   Section        0  diskio.o(i.get_fattime)
    i.get_ldnumber                           0x080043d4   Section        0  ff.o(i.get_ldnumber)
    get_ldnumber                             0x080043d5   Thumb Code    72  ff.o(i.get_ldnumber)
    i.key_init                               0x0800441c   Section        0  key.o(i.key_init)
    i.ld_clust                               0x08004458   Section        0  ff.o(i.ld_clust)
    ld_clust                                 0x08004459   Thumb Code    38  ff.o(i.ld_clust)
    i.ld_dword                               0x0800447e   Section        0  ff.o(i.ld_dword)
    ld_dword                                 0x0800447f   Thumb Code    24  ff.o(i.ld_dword)
    i.ld_word                                0x08004496   Section        0  ff.o(i.ld_word)
    ld_word                                  0x08004497   Thumb Code    12  ff.o(i.ld_word)
    i.main                                   0x080044a4   Section        0  main.o(i.main)
    i.mem_cmp                                0x08004534   Section        0  ff.o(i.mem_cmp)
    mem_cmp                                  0x08004535   Thumb Code    36  ff.o(i.mem_cmp)
    i.mem_cpy                                0x08004558   Section        0  ff.o(i.mem_cpy)
    mem_cpy                                  0x08004559   Thumb Code    26  ff.o(i.mem_cpy)
    i.mem_set                                0x08004572   Section        0  ff.o(i.mem_set)
    mem_set                                  0x08004573   Thumb Code    18  ff.o(i.mem_set)
    i.move_window                            0x08004584   Section        0  ff.o(i.move_window)
    move_window                              0x08004585   Thumb Code    52  ff.o(i.move_window)
    i.put_fat                                0x080045b8   Section        0  ff.o(i.put_fat)
    put_fat                                  0x080045b9   Thumb Code   312  ff.o(i.put_fat)
    i.put_lfn                                0x080046f0   Section        0  ff.o(i.put_lfn)
    put_lfn                                  0x080046f1   Thumb Code   124  ff.o(i.put_lfn)
    i.remove_chain                           0x08004770   Section        0  ff.o(i.remove_chain)
    remove_chain                             0x08004771   Thumb Code   150  ff.o(i.remove_chain)
    i.sin                                    0x08004808   Section        0  sin.o(i.sin)
    i.st_clust                               0x080048a8   Section        0  ff.o(i.st_clust)
    st_clust                                 0x080048a9   Thumb Code    36  ff.o(i.st_clust)
    i.st_dword                               0x080048cc   Section        0  ff.o(i.st_dword)
    st_dword                                 0x080048cd   Thumb Code    24  ff.o(i.st_dword)
    i.st_word                                0x080048e4   Section        0  ff.o(i.st_word)
    st_word                                  0x080048e5   Thumb Code    12  ff.o(i.st_word)
    i.sum_sfn                                0x080048f0   Section        0  ff.o(i.sum_sfn)
    sum_sfn                                  0x080048f1   Thumb Code    32  ff.o(i.sum_sfn)
    i.sync_fs                                0x08004910   Section        0  ff.o(i.sync_fs)
    sync_fs                                  0x08004911   Thumb Code   134  ff.o(i.sync_fs)
    i.sync_window                            0x080049a0   Section        0  ff.o(i.sync_window)
    sync_window                              0x080049a1   Thumb Code    82  ff.o(i.sync_window)
    i.usart1_init                            0x080049f4   Section        0  usart1.o(i.usart1_init)
    i.usart3_init                            0x08004a80   Section        0  usart3.o(i.usart3_init)
    i.usart3_senddat                         0x08004b24   Section        0  usart3.o(i.usart3_senddat)
    i.usart_moderx                           0x08004b60   Section        0  usart_tren.o(i.usart_moderx)
    i.usart_modetx                           0x08004b88   Section        0  usart_tren.o(i.usart_modetx)
    i.usart_tren_init                        0x08004bb0   Section        0  usart_tren.o(i.usart_tren_init)
    i.validate                               0x08004be0   Section        0  ff.o(i.validate)
    validate                                 0x08004be1   Thumb Code    66  ff.o(i.validate)
    x$fpl$d2f                                0x08004c24   Section       98  d2f.o(x$fpl$d2f)
    x$fpl$dadd                               0x08004c88   Section      336  daddsub_clz.o(x$fpl$dadd)
    _dadd1                                   0x08004c99   Thumb Code     0  daddsub_clz.o(x$fpl$dadd)
    x$fpl$dcheck1                            0x08004dd8   Section       16  dcheck1.o(x$fpl$dcheck1)
    x$fpl$dcmpinf                            0x08004de8   Section       24  dcmpi.o(x$fpl$dcmpinf)
    x$fpl$ddiv                               0x08004e00   Section      688  ddiv.o(x$fpl$ddiv)
    ddiv_entry                               0x08004e07   Thumb Code     0  ddiv.o(x$fpl$ddiv)
    x$fpl$dfix                               0x080050b0   Section       94  dfix.o(x$fpl$dfix)
    x$fpl$dflt                               0x0800510e   Section       46  dflt_clz.o(x$fpl$dflt)
    x$fpl$dfltu                              0x0800513c   Section       38  dflt_clz.o(x$fpl$dfltu)
    x$fpl$dleqf                              0x08005164   Section      120  dleqf.o(x$fpl$dleqf)
    x$fpl$dmul                               0x080051dc   Section      340  dmul.o(x$fpl$dmul)
    x$fpl$dnaninf                            0x08005330   Section      156  dnaninf.o(x$fpl$dnaninf)
    x$fpl$dretinf                            0x080053cc   Section       12  dretinf.o(x$fpl$dretinf)
    x$fpl$drleqf                             0x080053d8   Section      108  drleqf.o(x$fpl$drleqf)
    x$fpl$drsb                               0x08005444   Section       22  daddsub_clz.o(x$fpl$drsb)
    x$fpl$dsub                               0x0800545c   Section      468  daddsub_clz.o(x$fpl$dsub)
    _dsub1                                   0x0800546d   Thumb Code     0  daddsub_clz.o(x$fpl$dsub)
    x$fpl$f2d                                0x08005630   Section       86  f2d.o(x$fpl$f2d)
    x$fpl$fadd                               0x08005688   Section      196  faddsub_clz.o(x$fpl$fadd)
    _fadd1                                   0x08005697   Thumb Code     0  faddsub_clz.o(x$fpl$fadd)
    x$fpl$ffixu                              0x0800574c   Section       62  ffixu.o(x$fpl$ffixu)
    x$fpl$ffltu                              0x0800578c   Section       38  fflt_clz.o(x$fpl$ffltu)
    x$fpl$fmul                               0x080057b4   Section      258  fmul.o(x$fpl$fmul)
    x$fpl$fnaninf                            0x080058b6   Section      140  fnaninf.o(x$fpl$fnaninf)
    x$fpl$fretinf                            0x08005942   Section       10  fretinf.o(x$fpl$fretinf)
    x$fpl$frsb                               0x0800594c   Section       20  faddsub_clz.o(x$fpl$frsb)
    x$fpl$fsub                               0x08005960   Section      234  faddsub_clz.o(x$fpl$fsub)
    _fsub1                                   0x0800596f   Thumb Code     0  faddsub_clz.o(x$fpl$fsub)
    x$fpl$retnan                             0x08005a4a   Section      100  retnan.o(x$fpl$retnan)
    x$fpl$scalbn                             0x08005aae   Section       92  scalbn.o(x$fpl$scalbn)
    x$fpl$trapveneer                         0x08005b0a   Section       48  trapv.o(x$fpl$trapveneer)
    x$fpl$usenofp                            0x08005b3a   Section        0  usenofp.o(x$fpl$usenofp)
    .constdata                               0x08005b3c   Section       16  usart1.o(.constdata)
    .constdata                               0x08005b4c   Section       16  usart3.o(.constdata)
    .constdata                               0x08005b5c   Section      170  ff.o(.constdata)
    ExCvt                                    0x08005b5c   Data         128  ff.o(.constdata)
    LfnOfs                                   0x08005bdc   Data          13  ff.o(.constdata)
    cst                                      0x08005bea   Data          14  ff.o(.constdata)
    cst32                                    0x08005bf8   Data          14  ff.o(.constdata)
    .constdata                               0x08005c06   Section      942  ccsbcs.o(.constdata)
    Tbl                                      0x08005c06   Data         256  ccsbcs.o(.constdata)
    cvt1                                     0x08005d06   Data         498  ccsbcs.o(.constdata)
    cvt2                                     0x08005ef8   Data         188  ccsbcs.o(.constdata)
    .constdata                               0x08005fb8   Section       48  cos_i.o(.constdata)
    C                                        0x08005fb8   Data          48  cos_i.o(.constdata)
    .constdata                               0x08005fe8   Section      200  rred.o(.constdata)
    pio2s                                    0x08005fe8   Data          48  rred.o(.constdata)
    twooverpi                                0x08006018   Data         152  rred.o(.constdata)
    .constdata                               0x080060b0   Section       40  sin_i.o(.constdata)
    S                                        0x080060b0   Data          40  sin_i.o(.constdata)
    .data                                    0x20000000   Section       20  system_stm32f10x.o(.data)
    .data                                    0x20000014   Section        4  delay.o(.data)
    fac_us                                   0x20000014   Data           1  delay.o(.data)
    fac_ms                                   0x20000016   Data           2  delay.o(.data)
    .data                                    0x20000018   Section       20  stm32f10x_rcc.o(.data)
    APBAHBPrescTable                         0x20000018   Data          16  stm32f10x_rcc.o(.data)
    ADCPrescTable                            0x20000028   Data           4  stm32f10x_rcc.o(.data)
    .data                                    0x2000002c   Section       32  intconfig.o(.data)
    .data                                    0x2000004c   Section       17  usart1.o(.data)
    flag                                     0x2000005c   Data           1  usart1.o(.data)
    .data                                    0x20000060   Section        4  usart2.o(.data)
    .data                                    0x20000064   Section        4  usart3.o(.data)
    .data                                    0x20000068   Section        4  timer.o(.data)
    .data                                    0x2000006c   Section       20  sdio_sdcard.o(.data)
    CardType                                 0x2000006c   Data           4  sdio_sdcard.o(.data)
    RCA                                      0x20000070   Data           4  sdio_sdcard.o(.data)
    .data                                    0x20000080   Section        1  dma.o(.data)
    .data                                    0x20000082   Section       10  pwm.o(.data)
    .data                                    0x2000008c   Section      894  config.o(.data)
    .data                                    0x2000040c   Section        9  action.o(.data)
    .data                                    0x20000418   Section        6  ff.o(.data)
    FatFs                                    0x20000418   Data           4  ff.o(.data)
    Fsid                                     0x2000041c   Data           2  ff.o(.data)
    .data                                    0x20000420   Section       13  protocal.o(.data)
    .data                                    0x20000430   Section       30  file.o(.data)
    ADN                                      0x2000043e   Data           2  file.o(.data)
    ADC                                      0x20000440   Data           2  file.o(.data)
    random_check                             0x20000442   Data           1  file.o(.data)
    bw                                       0x20000444   Data           4  file.o(.data)
    ODN                                      0x20000448   Data           2  file.o(.data)
    ODC                                      0x2000044a   Data           2  file.o(.data)
    OAO                                      0x2000044c   Data           2  file.o(.data)
    .bss                                     0x20000450   Section      512  usart1.o(.bss)
    .bss                                     0x20000650   Section      256  usart2.o(.bss)
    .bss                                     0x20000750   Section      512  usart3.o(.bss)
    .bss                                     0x20000950   Section      196  sdio_sdcard.o(.bss)
    CSD_Tab                                  0x20000950   Data          16  sdio_sdcard.o(.bss)
    CID_Tab                                  0x20000960   Data          16  sdio_sdcard.o(.bss)
    SDSTATUS_Tab                             0x20000970   Data          16  sdio_sdcard.o(.bss)
    .bss                                     0x20000a14   Section      512  ff.o(.bss)
    LfnBuf                                   0x20000a14   Data         512  ff.o(.bss)
    .bss                                     0x20000c14   Section      508  protocal.o(.bss)
    .bss                                     0x20000e10   Section     2320  file.o(.bss)
    file_Action                              0x20001044   Data         552  file.o(.bss)
    file_Order                               0x2000126c   Data         552  file.o(.bss)
    fp                                       0x20001494   Data         552  file.o(.bss)
    FileName                                 0x200016bc   Data         100  file.o(.bss)
    .bss                                     0x20001720   Section       96  libspace.o(.bss)
    HEAP                                     0x20001780   Section      512  startup_stm32f10x_hd.o(HEAP)
    Heap_Mem                                 0x20001780   Data         512  startup_stm32f10x_hd.o(HEAP)
    STACK                                    0x20001980   Section     1024  startup_stm32f10x_hd.o(STACK)
    Stack_Mem                                0x20001980   Data        1024  startup_stm32f10x_hd.o(STACK)
    __initial_sp                             0x20001d80   Data           0  startup_stm32f10x_hd.o(STACK)

    Global Symbols

    Symbol Name                              Value     Ov Type        Size  Object(Section)

    BuildAttributes$$THM_ISAv4$P$D$K$B$S$PE$A:L22UL41UL21$X:L11$S22US41US21$IEEE1$IW$USESV6$~STKCKD$USESV7$~SHL$OTIME$ROPI$IEEEX$EBA8$UX$STANDARDLIB$REQ8$PRES8$EABIv2 0x00000000   Number         0  anon$$obj.o ABSOLUTE
    __ARM_use_no_argv                        0x00000000   Number         0  main.o ABSOLUTE
    __ARM_exceptions_init                     - Undefined Weak Reference
    __alloca_initialize                       - Undefined Weak Reference
    __arm_preinit_                            - Undefined Weak Reference
    __cpp_initialize__aeabi_                  - Undefined Weak Reference
    __cxa_finalize                            - Undefined Weak Reference
    __rt_locale                               - Undefined Weak Reference
    __sigvec_lookup                           - Undefined Weak Reference
    _atexit_init                              - Undefined Weak Reference
    _call_atexit_fns                          - Undefined Weak Reference
    _clock_init                               - Undefined Weak Reference
    _fp_trap_init                             - Undefined Weak Reference
    _fp_trap_shutdown                         - Undefined Weak Reference
    _get_lc_collate                           - Undefined Weak Reference
    _get_lc_ctype                             - Undefined Weak Reference
    _get_lc_monetary                          - Undefined Weak Reference
    _get_lc_numeric                           - Undefined Weak Reference
    _get_lc_time                              - Undefined Weak Reference
    _getenv_init                              - Undefined Weak Reference
    _handle_redirection                       - Undefined Weak Reference
    _init_alloc                               - Undefined Weak Reference
    _init_user_alloc                          - Undefined Weak Reference
    _initio                                   - Undefined Weak Reference
    _mutex_acquire                            - Undefined Weak Reference
    _mutex_release                            - Undefined Weak Reference
    _printf_post_padding                      - Undefined Weak Reference
    _printf_pre_padding                       - Undefined Weak Reference
    _printf_truncate_signed                   - Undefined Weak Reference
    _printf_truncate_unsigned                 - Undefined Weak Reference
    _rand_init                                - Undefined Weak Reference
    _signal_finish                            - Undefined Weak Reference
    _signal_init                              - Undefined Weak Reference
    _terminate_alloc                          - Undefined Weak Reference
    _terminate_user_alloc                     - Undefined Weak Reference
    _terminateio                              - Undefined Weak Reference
    __Vectors_Size                           0x00000130   Number         0  startup_stm32f10x_hd.o ABSOLUTE
    __Vectors                                0x08000000   Data           4  startup_stm32f10x_hd.o(RESET)
    __Vectors_End                            0x08000130   Data           0  startup_stm32f10x_hd.o(RESET)
    __main                                   0x08000131   Thumb Code     8  __main.o(!!!main)
    __scatterload                            0x08000139   Thumb Code     0  __scatter.o(!!!scatter)
    __scatterload_rt2                        0x08000139   Thumb Code    44  __scatter.o(!!!scatter)
    __scatterload_rt2_thumb_only             0x08000139   Thumb Code     0  __scatter.o(!!!scatter)
    __scatterload_null                       0x08000147   Thumb Code     0  __scatter.o(!!!scatter)
    __decompress                             0x0800016d   Thumb Code    90  __dczerorl2.o(!!dczerorl2)
    __decompress1                            0x0800016d   Thumb Code     0  __dczerorl2.o(!!dczerorl2)
    __scatterload_zeroinit                   0x080001c9   Thumb Code    28  __scatter_zi.o(!!handler_zi)
    _printf_percent                          0x080001e5   Thumb Code     0  _printf_percent.o(.ARM.Collect$$_printf_percent$$00000000)
    _printf_percent_end                      0x080001e5   Thumb Code     0  _printf_percent_end.o(.ARM.Collect$$_printf_percent$$00000017)
    __rt_lib_init                            0x080001e9   Thumb Code     0  libinit.o(.ARM.Collect$$libinit$$00000000)
    __rt_lib_init_alloca_1                   0x080001eb   Thumb Code     0  libinit2.o(.ARM.Collect$$libinit$$0000002E)
    __rt_lib_init_argv_1                     0x080001eb   Thumb Code     0  libinit2.o(.ARM.Collect$$libinit$$0000002C)
    __rt_lib_init_atexit_1                   0x080001eb   Thumb Code     0  libinit2.o(.ARM.Collect$$libinit$$0000001B)
    __rt_lib_init_clock_1                    0x080001eb   Thumb Code     0  libinit2.o(.ARM.Collect$$libinit$$00000021)
    __rt_lib_init_cpp_1                      0x080001eb   Thumb Code     0  libinit2.o(.ARM.Collect$$libinit$$00000032)
    __rt_lib_init_exceptions_1               0x080001eb   Thumb Code     0  libinit2.o(.ARM.Collect$$libinit$$00000030)
    __rt_lib_init_fp_1                       0x080001eb   Thumb Code     0  libinit2.o(.ARM.Collect$$libinit$$00000002)
    __rt_lib_init_fp_trap_1                  0x080001eb   Thumb Code     0  libinit2.o(.ARM.Collect$$libinit$$0000001F)
    __rt_lib_init_getenv_1                   0x080001eb   Thumb Code     0  libinit2.o(.ARM.Collect$$libinit$$00000023)
    __rt_lib_init_heap_1                     0x080001eb   Thumb Code     0  libinit2.o(.ARM.Collect$$libinit$$0000000A)
    __rt_lib_init_lc_collate_1               0x080001eb   Thumb Code     0  libinit2.o(.ARM.Collect$$libinit$$00000011)
    __rt_lib_init_lc_ctype_1                 0x080001eb   Thumb Code     0  libinit2.o(.ARM.Collect$$libinit$$00000013)
    __rt_lib_init_lc_monetary_1              0x080001eb   Thumb Code     0  libinit2.o(.ARM.Collect$$libinit$$00000015)
    __rt_lib_init_lc_numeric_1               0x080001eb   Thumb Code     0  libinit2.o(.ARM.Collect$$libinit$$00000017)
    __rt_lib_init_lc_time_1                  0x080001eb   Thumb Code     0  libinit2.o(.ARM.Collect$$libinit$$00000019)
    __rt_lib_init_preinit_1                  0x080001eb   Thumb Code     0  libinit2.o(.ARM.Collect$$libinit$$00000004)
    __rt_lib_init_rand_1                     0x080001eb   Thumb Code     0  libinit2.o(.ARM.Collect$$libinit$$0000000E)
    __rt_lib_init_return                     0x080001eb   Thumb Code     0  libinit2.o(.ARM.Collect$$libinit$$00000033)
    __rt_lib_init_signal_1                   0x080001eb   Thumb Code     0  libinit2.o(.ARM.Collect$$libinit$$0000001D)
    __rt_lib_init_stdio_1                    0x080001eb   Thumb Code     0  libinit2.o(.ARM.Collect$$libinit$$00000025)
    __rt_lib_init_user_alloc_1               0x080001eb   Thumb Code     0  libinit2.o(.ARM.Collect$$libinit$$0000000C)
    __rt_lib_shutdown                        0x080001ed   Thumb Code     0  libshutdown.o(.ARM.Collect$$libshutdown$$00000000)
    __rt_lib_shutdown_fp_trap_1              0x080001ef   Thumb Code     0  libshutdown2.o(.ARM.Collect$$libshutdown$$00000006)
    __rt_lib_shutdown_heap_1                 0x080001ef   Thumb Code     0  libshutdown2.o(.ARM.Collect$$libshutdown$$0000000E)
    __rt_lib_shutdown_return                 0x080001ef   Thumb Code     0  libshutdown2.o(.ARM.Collect$$libshutdown$$0000000F)
    __rt_lib_shutdown_signal_1               0x080001ef   Thumb Code     0  libshutdown2.o(.ARM.Collect$$libshutdown$$00000009)
    __rt_lib_shutdown_stdio_1                0x080001ef   Thumb Code     0  libshutdown2.o(.ARM.Collect$$libshutdown$$00000003)
    __rt_lib_shutdown_user_alloc_1           0x080001ef   Thumb Code     0  libshutdown2.o(.ARM.Collect$$libshutdown$$0000000B)
    __rt_entry                               0x080001f1   Thumb Code     0  __rtentry.o(.ARM.Collect$$rtentry$$00000000)
    __rt_entry_presh_1                       0x080001f1   Thumb Code     0  __rtentry2.o(.ARM.Collect$$rtentry$$00000002)
    __rt_entry_sh                            0x080001f1   Thumb Code     0  __rtentry4.o(.ARM.Collect$$rtentry$$00000004)
    __rt_entry_li                            0x080001f7   Thumb Code     0  __rtentry2.o(.ARM.Collect$$rtentry$$0000000A)
    __rt_entry_postsh_1                      0x080001f7   Thumb Code     0  __rtentry2.o(.ARM.Collect$$rtentry$$00000009)
    __rt_entry_main                          0x080001fb   Thumb Code     0  __rtentry2.o(.ARM.Collect$$rtentry$$0000000D)
    __rt_entry_postli_1                      0x080001fb   Thumb Code     0  __rtentry2.o(.ARM.Collect$$rtentry$$0000000C)
    __rt_exit                                0x08000203   Thumb Code     0  rtexit.o(.ARM.Collect$$rtexit$$00000000)
    __rt_exit_ls                             0x08000205   Thumb Code     0  rtexit2.o(.ARM.Collect$$rtexit$$00000003)
    __rt_exit_prels_1                        0x08000205   Thumb Code     0  rtexit2.o(.ARM.Collect$$rtexit$$00000002)
    __rt_exit_exit                           0x08000209   Thumb Code     0  rtexit2.o(.ARM.Collect$$rtexit$$00000004)
    Reset_Handler                            0x08000211   Thumb Code     8  startup_stm32f10x_hd.o(.text)
    ADC1_2_IRQHandler                        0x0800022b   Thumb Code     0  startup_stm32f10x_hd.o(.text)
    ADC3_IRQHandler                          0x0800022b   Thumb Code     0  startup_stm32f10x_hd.o(.text)
    CAN1_RX1_IRQHandler                      0x0800022b   Thumb Code     0  startup_stm32f10x_hd.o(.text)
    CAN1_SCE_IRQHandler                      0x0800022b   Thumb Code     0  startup_stm32f10x_hd.o(.text)
    DMA1_Channel1_IRQHandler                 0x0800022b   Thumb Code     0  startup_stm32f10x_hd.o(.text)
    DMA1_Channel3_IRQHandler                 0x0800022b   Thumb Code     0  startup_stm32f10x_hd.o(.text)
    DMA1_Channel4_IRQHandler                 0x0800022b   Thumb Code     0  startup_stm32f10x_hd.o(.text)
    DMA1_Channel5_IRQHandler                 0x0800022b   Thumb Code     0  startup_stm32f10x_hd.o(.text)
    DMA1_Channel6_IRQHandler                 0x0800022b   Thumb Code     0  startup_stm32f10x_hd.o(.text)
    DMA1_Channel7_IRQHandler                 0x0800022b   Thumb Code     0  startup_stm32f10x_hd.o(.text)
    DMA2_Channel1_IRQHandler                 0x0800022b   Thumb Code     0  startup_stm32f10x_hd.o(.text)
    DMA2_Channel2_IRQHandler                 0x0800022b   Thumb Code     0  startup_stm32f10x_hd.o(.text)
    DMA2_Channel3_IRQHandler                 0x0800022b   Thumb Code     0  startup_stm32f10x_hd.o(.text)
    DMA2_Channel4_5_IRQHandler               0x0800022b   Thumb Code     0  startup_stm32f10x_hd.o(.text)
    EXTI0_IRQHandler                         0x0800022b   Thumb Code     0  startup_stm32f10x_hd.o(.text)
    EXTI15_10_IRQHandler                     0x0800022b   Thumb Code     0  startup_stm32f10x_hd.o(.text)
    EXTI2_IRQHandler                         0x0800022b   Thumb Code     0  startup_stm32f10x_hd.o(.text)
    EXTI3_IRQHandler                         0x0800022b   Thumb Code     0  startup_stm32f10x_hd.o(.text)
    EXTI4_IRQHandler                         0x0800022b   Thumb Code     0  startup_stm32f10x_hd.o(.text)
    EXTI9_5_IRQHandler                       0x0800022b   Thumb Code     0  startup_stm32f10x_hd.o(.text)
    FLASH_IRQHandler                         0x0800022b   Thumb Code     0  startup_stm32f10x_hd.o(.text)
    FSMC_IRQHandler                          0x0800022b   Thumb Code     0  startup_stm32f10x_hd.o(.text)
    I2C1_ER_IRQHandler                       0x0800022b   Thumb Code     0  startup_stm32f10x_hd.o(.text)
    I2C1_EV_IRQHandler                       0x0800022b   Thumb Code     0  startup_stm32f10x_hd.o(.text)
    I2C2_ER_IRQHandler                       0x0800022b   Thumb Code     0  startup_stm32f10x_hd.o(.text)
    I2C2_EV_IRQHandler                       0x0800022b   Thumb Code     0  startup_stm32f10x_hd.o(.text)
    PVD_IRQHandler                           0x0800022b   Thumb Code     0  startup_stm32f10x_hd.o(.text)
    RCC_IRQHandler                           0x0800022b   Thumb Code     0  startup_stm32f10x_hd.o(.text)
    RTCAlarm_IRQHandler                      0x0800022b   Thumb Code     0  startup_stm32f10x_hd.o(.text)
    RTC_IRQHandler                           0x0800022b   Thumb Code     0  startup_stm32f10x_hd.o(.text)
    SDIO_IRQHandler                          0x0800022b   Thumb Code     0  startup_stm32f10x_hd.o(.text)
    SPI1_IRQHandler                          0x0800022b   Thumb Code     0  startup_stm32f10x_hd.o(.text)
    SPI2_IRQHandler                          0x0800022b   Thumb Code     0  startup_stm32f10x_hd.o(.text)
    SPI3_IRQHandler                          0x0800022b   Thumb Code     0  startup_stm32f10x_hd.o(.text)
    TAMPER_IRQHandler                        0x0800022b   Thumb Code     0  startup_stm32f10x_hd.o(.text)
    TIM1_BRK_IRQHandler                      0x0800022b   Thumb Code     0  startup_stm32f10x_hd.o(.text)
    TIM1_CC_IRQHandler                       0x0800022b   Thumb Code     0  startup_stm32f10x_hd.o(.text)
    TIM1_TRG_COM_IRQHandler                  0x0800022b   Thumb Code     0  startup_stm32f10x_hd.o(.text)
    TIM1_UP_IRQHandler                       0x0800022b   Thumb Code     0  startup_stm32f10x_hd.o(.text)
    TIM3_IRQHandler                          0x0800022b   Thumb Code     0  startup_stm32f10x_hd.o(.text)
    TIM5_IRQHandler                          0x0800022b   Thumb Code     0  startup_stm32f10x_hd.o(.text)
    TIM6_IRQHandler                          0x0800022b   Thumb Code     0  startup_stm32f10x_hd.o(.text)
    TIM7_IRQHandler                          0x0800022b   Thumb Code     0  startup_stm32f10x_hd.o(.text)
    TIM8_BRK_IRQHandler                      0x0800022b   Thumb Code     0  startup_stm32f10x_hd.o(.text)
    TIM8_CC_IRQHandler                       0x0800022b   Thumb Code     0  startup_stm32f10x_hd.o(.text)
    TIM8_TRG_COM_IRQHandler                  0x0800022b   Thumb Code     0  startup_stm32f10x_hd.o(.text)
    TIM8_UP_IRQHandler                       0x0800022b   Thumb Code     0  startup_stm32f10x_hd.o(.text)
    UART4_IRQHandler                         0x0800022b   Thumb Code     0  startup_stm32f10x_hd.o(.text)
    UART5_IRQHandler                         0x0800022b   Thumb Code     0  startup_stm32f10x_hd.o(.text)
    USBWakeUp_IRQHandler                     0x0800022b   Thumb Code     0  startup_stm32f10x_hd.o(.text)
    USB_HP_CAN1_TX_IRQHandler                0x0800022b   Thumb Code     0  startup_stm32f10x_hd.o(.text)
    USB_LP_CAN1_RX0_IRQHandler               0x0800022b   Thumb Code     0  startup_stm32f10x_hd.o(.text)
    WWDG_IRQHandler                          0x0800022b   Thumb Code     0  startup_stm32f10x_hd.o(.text)
    __user_initial_stackheap                 0x0800022d   Thumb Code     0  startup_stm32f10x_hd.o(.text)
    __use_no_semihosting                     0x08000251   Thumb Code     2  use_no_semi_2.o(.text)
    __2sprintf                               0x08000255   Thumb Code    34  noretval__2sprintf.o(.text)
    __printf                                 0x0800027d   Thumb Code   104  __printf.o(.text)
    strlen                                   0x080002e5   Thumb Code    62  strlen.o(.text)
    __aeabi_memclr4                          0x08000323   Thumb Code     0  rt_memclr_w.o(.text)
    __aeabi_memclr8                          0x08000323   Thumb Code     0  rt_memclr_w.o(.text)
    __rt_memclr_w                            0x08000323   Thumb Code    78  rt_memclr_w.o(.text)
    _memset_w                                0x08000327   Thumb Code     0  rt_memclr_w.o(.text)
    __use_two_region_memory                  0x08000371   Thumb Code     2  heapauxi.o(.text)
    __rt_heap_escrow$2region                 0x08000373   Thumb Code     2  heapauxi.o(.text)
    __rt_heap_expand$2region                 0x08000375   Thumb Code     2  heapauxi.o(.text)
    __I$use$semihosting                      0x08000377   Thumb Code     0  use_no_semi.o(.text)
    __use_no_semihosting_swi                 0x08000377   Thumb Code     2  use_no_semi.o(.text)
    __read_errno                             0x08000379   Thumb Code    10  _rserrno.o(.text)
    __set_errno                              0x08000383   Thumb Code    12  _rserrno.o(.text)
    _printf_char_common                      0x0800039b   Thumb Code    32  _printf_char_common.o(.text)
    _sputc                                   0x080003c1   Thumb Code    10  _sputc.o(.text)
    __aeabi_errno_addr                       0x080003cd   Thumb Code     8  rt_errno_addr_intlibspace.o(.text)
    __errno$intlibspace                      0x080003cd   Thumb Code     0  rt_errno_addr_intlibspace.o(.text)
    __rt_errno_addr$intlibspace              0x080003cd   Thumb Code     0  rt_errno_addr_intlibspace.o(.text)
    __user_libspace                          0x080003d5   Thumb Code     8  libspace.o(.text)
    __user_perproc_libspace                  0x080003d5   Thumb Code     0  libspace.o(.text)
    __user_perthread_libspace                0x080003d5   Thumb Code     0  libspace.o(.text)
    __user_setup_stackheap                   0x080003dd   Thumb Code    74  sys_stackheap_outer.o(.text)
    exit                                     0x08000427   Thumb Code    12  exit.o(.text)
    Arm_down                                 0x08000433   Thumb Code    36  action.o(i.Arm_down)
    Arm_lean_backward                        0x08000457   Thumb Code    72  action.o(i.Arm_lean_backward)
    Arm_lean_forward                         0x0800049f   Thumb Code    72  action.o(i.Arm_lean_forward)
    Arm_turn_left                            0x080004e7   Thumb Code    36  action.o(i.Arm_turn_left)
    Arm_turn_right                           0x0800050b   Thumb Code    36  action.o(i.Arm_turn_right)
    Arm_up                                   0x0800052f   Thumb Code    36  action.o(i.Arm_up)
    BusFault_Handler                         0x08000553   Thumb Code     4  stm32f10x_it.o(i.BusFault_Handler)
    Come_up                                  0x08000719   Thumb Code    88  action.o(i.Come_up)
    DMA1_Channel2_IRQHandler                 0x08000779   Thumb Code    34  dma.o(i.DMA1_Channel2_IRQHandler)
    DMA_ClearFlag                            0x080007a5   Thumb Code    18  stm32f10x_dma.o(i.DMA_ClearFlag)
    DMA_Cmd                                  0x080007c1   Thumb Code    24  stm32f10x_dma.o(i.DMA_Cmd)
    DMA_GetFlagStatus                        0x080007d9   Thumb Code    36  stm32f10x_dma.o(i.DMA_GetFlagStatus)
    DMA_Init                                 0x08000805   Thumb Code    60  stm32f10x_dma.o(i.DMA_Init)
    DebugMon_Handler                         0x08000841   Thumb Code     2  stm32f10x_it.o(i.DebugMon_Handler)
    Dive                                     0x08000845   Thumb Code    88  action.o(i.Dive)
    EXTI1_IRQHandler                         0x080008a5   Thumb Code    70  key.o(i.EXTI1_IRQHandler)
    EXTIX_Init                               0x08000909   Thumb Code    54  key.o(i.EXTIX_Init)
    EXTI_ClearITPendingBit                   0x08000945   Thumb Code     6  stm32f10x_exti.o(i.EXTI_ClearITPendingBit)
    EXTI_Init                                0x08000951   Thumb Code   142  stm32f10x_exti.o(i.EXTI_Init)
    ExAction                                 0x080009e5   Thumb Code   146  action.o(i.ExAction)
    FileSystemInit                           0x08000a81   Thumb Code    92  file.o(i.FileSystemInit)
    GPIO_EXTILineConfig                      0x08000c95   Thumb Code    60  stm32f10x_gpio.o(i.GPIO_EXTILineConfig)
    GPIO_Init                                0x08000cd5   Thumb Code   278  stm32f10x_gpio.o(i.GPIO_Init)
    GPIO_SetBits                             0x08000deb   Thumb Code     4  stm32f10x_gpio.o(i.GPIO_SetBits)
    Go_forward                               0x08000df1   Thumb Code   286  action.o(i.Go_forward)
    HardFault_Handler                        0x08000f25   Thumb Code     4  stm32f10x_it.o(i.HardFault_Handler)
    LED_Init                                 0x08000f29   Thumb Code    92  led.o(i.LED_Init)
    LobotCheckSum                            0x08000f8d   Thumb Code    34  ax12.o(i.LobotCheckSum)
    MemManage_Handler                        0x08000faf   Thumb Code     4  stm32f10x_it.o(i.MemManage_Handler)
    NMI_Handler                              0x08000fb3   Thumb Code     2  stm32f10x_it.o(i.NMI_Handler)
    NVIC_Init                                0x08000fb5   Thumb Code   100  misc.o(i.NVIC_Init)
    PendSV_Handler                           0x08001025   Thumb Code     2  stm32f10x_it.o(i.PendSV_Handler)
    RCC_AHBPeriphClockCmd                    0x08001029   Thumb Code    26  stm32f10x_rcc.o(i.RCC_AHBPeriphClockCmd)
    RCC_APB1PeriphClockCmd                   0x08001049   Thumb Code    26  stm32f10x_rcc.o(i.RCC_APB1PeriphClockCmd)
    RCC_APB2PeriphClockCmd                   0x08001069   Thumb Code    26  stm32f10x_rcc.o(i.RCC_APB2PeriphClockCmd)
    RCC_GetClocksFreq                        0x08001089   Thumb Code   192  stm32f10x_rcc.o(i.RCC_GetClocksFreq)
    SDIO_ClearFlag                           0x08001279   Thumb Code     6  stm32f10x_sdio.o(i.SDIO_ClearFlag)
    SDIO_ClockCmd                            0x08001285   Thumb Code     6  stm32f10x_sdio.o(i.SDIO_ClockCmd)
    SDIO_DMACmd                              0x08001291   Thumb Code     6  stm32f10x_sdio.o(i.SDIO_DMACmd)
    SDIO_DataConfig                          0x0800129d   Thumb Code    42  stm32f10x_sdio.o(i.SDIO_DataConfig)
    SDIO_DeInit                              0x080012cd   Thumb Code    28  stm32f10x_sdio.o(i.SDIO_DeInit)
    SDIO_GetCommandResponse                  0x080012f1   Thumb Code     8  stm32f10x_sdio.o(i.SDIO_GetCommandResponse)
    SDIO_GetFlagStatus                       0x080012fd   Thumb Code    20  stm32f10x_sdio.o(i.SDIO_GetFlagStatus)
    SDIO_GetPowerState                       0x08001315   Thumb Code    10  stm32f10x_sdio.o(i.SDIO_GetPowerState)
    SDIO_GetResponse                         0x08001325   Thumb Code    20  stm32f10x_sdio.o(i.SDIO_GetResponse)
    SDIO_ITConfig                            0x0800133d   Thumb Code    26  stm32f10x_sdio.o(i.SDIO_ITConfig)
    SDIO_Init                                0x0800135d   Thumb Code    42  stm32f10x_sdio.o(i.SDIO_Init)
    SDIO_ReadData                            0x0800138d   Thumb Code     6  stm32f10x_sdio.o(i.SDIO_ReadData)
    SDIO_SendCommand                         0x08001399   Thumb Code    38  stm32f10x_sdio.o(i.SDIO_SendCommand)
    SDIO_SetPowerState                       0x080013c5   Thumb Code    22  stm32f10x_sdio.o(i.SDIO_SetPowerState)
    SD_EnableWideBusOperation                0x080014b9   Thumb Code   140  sdio_sdcard.o(i.SD_EnableWideBusOperation)
    SD_GetCardInfo                           0x0800159d   Thumb Code   700  sdio_sdcard.o(i.SD_GetCardInfo)
    SD_GetState                              0x08001869   Thumb Code    26  sdio_sdcard.o(i.SD_GetState)
    SD_GetStatus                             0x08001883   Thumb Code    30  sdio_sdcard.o(i.SD_GetStatus)
    SD_Init                                  0x080018a1   Thumb Code   102  sdio_sdcard.o(i.SD_Init)
    SD_InitializeCards                       0x08001911   Thumb Code   294  sdio_sdcard.o(i.SD_InitializeCards)
    SD_PowerON                               0x08001a4d   Thumb Code   374  sdio_sdcard.o(i.SD_PowerON)
    SD_ReadBlock                             0x08001bd5   Thumb Code   192  sdio_sdcard.o(i.SD_ReadBlock)
    SD_SelectDeselect                        0x08001cb1   Thumb Code    48  sdio_sdcard.o(i.SD_SelectDeselect)
    SD_SendStatus                            0x08001ce5   Thumb Code    46  sdio_sdcard.o(i.SD_SendStatus)
    SD_WaitReadOperation                     0x08001d1d   Thumb Code    42  sdio_sdcard.o(i.SD_WaitReadOperation)
    SD_WaitWriteOperation                    0x08001d51   Thumb Code    50  sdio_sdcard.o(i.SD_WaitWriteOperation)
    SD_WriteBlock                            0x08001d8d   Thumb Code   190  sdio_sdcard.o(i.SD_WriteBlock)
    SD_WriteMultiBlocks                      0x08001e69   Thumb Code   294  sdio_sdcard.o(i.SD_WriteMultiBlocks)
    SVC_Handler                              0x08001fb1   Thumb Code     2  stm32f10x_it.o(i.SVC_Handler)
    Shou_qi                                  0x0800209d   Thumb Code    16  action.o(i.Shou_qi)
    Speed_down                               0x080020b1   Thumb Code    94  action.o(i.Speed_down)
    Speed_up                                 0x0800212d   Thumb Code    94  action.o(i.Speed_up)
    SysTick_CLKSourceConfig                  0x080021a9   Thumb Code    40  misc.o(i.SysTick_CLKSourceConfig)
    SysTick_Handler                          0x080021d1   Thumb Code     2  stm32f10x_it.o(i.SysTick_Handler)
    SystemInit                               0x080021d5   Thumb Code    78  system_stm32f10x.o(i.SystemInit)
    TIM2_IRQHandler                          0x08002235   Thumb Code    32  timer.o(i.TIM2_IRQHandler)
    TIM2_Init                                0x08002259   Thumb Code    72  timer.o(i.TIM2_Init)
    TIM4_IRQHandler                          0x080022a5   Thumb Code   170  pwm.o(i.TIM4_IRQHandler)
    TIM_ClearITPendingBit                    0x08002365   Thumb Code     6  stm32f10x_tim.o(i.TIM_ClearITPendingBit)
    TIM_Cmd                                  0x0800236b   Thumb Code    24  stm32f10x_tim.o(i.TIM_Cmd)
    TIM_GetITStatus                          0x08002383   Thumb Code    34  stm32f10x_tim.o(i.TIM_GetITStatus)
    TIM_ITConfig                             0x080023a5   Thumb Code    18  stm32f10x_tim.o(i.TIM_ITConfig)
    TIM_TimeBaseInit                         0x080023b9   Thumb Code   122  stm32f10x_tim.o(i.TIM_TimeBaseInit)
    Turn_left                                0x0800245d   Thumb Code   286  action.o(i.Turn_left)
    Turn_right                               0x08002591   Thumb Code   286  action.o(i.Turn_right)
    USART1_IRQHandler                        0x080026c5   Thumb Code   274  usart1.o(i.USART1_IRQHandler)
    USART2_IRQHandler                        0x08002805   Thumb Code    38  usart2.o(i.USART2_IRQHandler)
    USART3_IRQHandler                        0x08002839   Thumb Code    40  usart3.o(i.USART3_IRQHandler)
    USART_Init                               0x0800286d   Thumb Code   210  stm32f10x_usart.o(i.USART_Init)
    UsageFault_Handler                       0x08002945   Thumb Code     4  stm32f10x_it.o(i.UsageFault_Handler)
    __ARM_fpclassify                         0x08002949   Thumb Code    40  fpclassify.o(i.__ARM_fpclassify)
    __ieee754_rem_pio2                       0x08002971   Thumb Code   828  rred.o(i.__ieee754_rem_pio2)
    __kernel_cos                             0x08002cf9   Thumb Code   230  cos_i.o(i.__kernel_cos)
    __kernel_poly                            0x08002df5   Thumb Code   170  poly.o(i.__kernel_poly)
    __kernel_sin                             0x08002ea1   Thumb Code   224  sin_i.o(i.__kernel_sin)
    __mathlib_dbl_infnan                     0x08002f8d   Thumb Code     6  dunder.o(i.__mathlib_dbl_infnan)
    __mathlib_dbl_invalid                    0x08002f93   Thumb Code    12  dunder.o(i.__mathlib_dbl_invalid)
    __mathlib_dbl_underflow                  0x08002fa1   Thumb Code    10  dunder.o(i.__mathlib_dbl_underflow)
    _sys_exit                                0x08002fb1   Thumb Code     4  ustdout.o(i._sys_exit)
    axAllPosition                            0x08002fb5   Thumb Code    42  ax12.o(i.axAllPosition)
    axAnalizePosition                        0x08002fdf   Thumb Code    94  ax12.o(i.axAnalizePosition)
    axGetPosition                            0x0800303d   Thumb Code    82  ax12.o(i.axGetPosition)
    axSendPack                               0x08003099   Thumb Code   130  ax12.o(i.axSendPack)
    axSendPosition                           0x0800311b   Thumb Code    60  ax12.o(i.axSendPosition)
    ax_usartx_senddat                        0x08003157   Thumb Code    16  ax12.o(i.ax_usartx_senddat)
    delay_init                               0x080035bd   Thumb Code    50  delay.o(i.delay_init)
    delay_ms                                 0x08003601   Thumb Code    72  delay.o(i.delay_ms)
    disk_initialize                          0x08003a91   Thumb Code    20  diskio.o(i.disk_initialize)
    disk_ioctl                               0x08003aa5   Thumb Code    52  diskio.o(i.disk_ioctl)
    disk_read                                0x08003ad9   Thumb Code    58  diskio.o(i.disk_read)
    disk_status                              0x08003b13   Thumb Code     6  diskio.o(i.disk_status)
    disk_write                               0x08003b19   Thumb Code    78  diskio.o(i.disk_write)
    f_closedir                               0x08003b67   Thumb Code    24  ff.o(i.f_closedir)
    f_mkdir                                  0x08003b7f   Thumb Code   350  ff.o(i.f_mkdir)
    f_mount                                  0x08003cdd   Thumb Code    86  ff.o(i.f_mount)
    f_opendir                                0x08003d39   Thumb Code   112  ff.o(i.f_opendir)
    ff_convert                               0x08003da9   Thumb Code    70  ccsbcs.o(i.ff_convert)
    ff_wtoupper                              0x08003df5   Thumb Code   156  ccsbcs.o(i.ff_wtoupper)
    get_fattime                              0x080043d1   Thumb Code     4  diskio.o(i.get_fattime)
    key_init                                 0x0800441d   Thumb Code    52  key.o(i.key_init)
    main                                     0x080044a5   Thumb Code   120  main.o(i.main)
    sin                                      0x08004809   Thumb Code   150  sin.o(i.sin)
    usart1_init                              0x080049f5   Thumb Code   120  usart1.o(i.usart1_init)
    usart3_init                              0x08004a81   Thumb Code   142  usart3.o(i.usart3_init)
    usart3_senddat                           0x08004b25   Thumb Code    56  usart3.o(i.usart3_senddat)
    usart_moderx                             0x08004b61   Thumb Code    28  usart_tren.o(i.usart_moderx)
    usart_modetx                             0x08004b89   Thumb Code    28  usart_tren.o(i.usart_modetx)
    usart_tren_init                          0x08004bb1   Thumb Code    42  usart_tren.o(i.usart_tren_init)
    __aeabi_d2f                              0x08004c25   Thumb Code     0  d2f.o(x$fpl$d2f)
    _d2f                                     0x08004c25   Thumb Code    98  d2f.o(x$fpl$d2f)
    __aeabi_dadd                             0x08004c89   Thumb Code     0  daddsub_clz.o(x$fpl$dadd)
    _dadd                                    0x08004c89   Thumb Code   332  daddsub_clz.o(x$fpl$dadd)
    __fpl_dcheck_NaN1                        0x08004dd9   Thumb Code    10  dcheck1.o(x$fpl$dcheck1)
    __fpl_dcmp_Inf                           0x08004de9   Thumb Code    24  dcmpi.o(x$fpl$dcmpinf)
    __aeabi_ddiv                             0x08004e01   Thumb Code     0  ddiv.o(x$fpl$ddiv)
    _ddiv                                    0x08004e01   Thumb Code   552  ddiv.o(x$fpl$ddiv)
    __aeabi_d2iz                             0x080050b1   Thumb Code     0  dfix.o(x$fpl$dfix)
    _dfix                                    0x080050b1   Thumb Code    94  dfix.o(x$fpl$dfix)
    __aeabi_i2d                              0x0800510f   Thumb Code     0  dflt_clz.o(x$fpl$dflt)
    _dflt                                    0x0800510f   Thumb Code    46  dflt_clz.o(x$fpl$dflt)
    __aeabi_ui2d                             0x0800513d   Thumb Code     0  dflt_clz.o(x$fpl$dfltu)
    _dfltu                                   0x0800513d   Thumb Code    38  dflt_clz.o(x$fpl$dfltu)
    __aeabi_cdcmple                          0x08005165   Thumb Code     0  dleqf.o(x$fpl$dleqf)
    _dcmple                                  0x08005165   Thumb Code   120  dleqf.o(x$fpl$dleqf)
    __fpl_dcmple_InfNaN                      0x080051c7   Thumb Code     0  dleqf.o(x$fpl$dleqf)
    __aeabi_dmul                             0x080051dd   Thumb Code     0  dmul.o(x$fpl$dmul)
    _dmul                                    0x080051dd   Thumb Code   332  dmul.o(x$fpl$dmul)
    __fpl_dnaninf                            0x08005331   Thumb Code   156  dnaninf.o(x$fpl$dnaninf)
    __fpl_dretinf                            0x080053cd   Thumb Code    12  dretinf.o(x$fpl$dretinf)
    __aeabi_cdrcmple                         0x080053d9   Thumb Code     0  drleqf.o(x$fpl$drleqf)
    _drcmple                                 0x080053d9   Thumb Code   108  drleqf.o(x$fpl$drleqf)
    __aeabi_drsub                            0x08005445   Thumb Code     0  daddsub_clz.o(x$fpl$drsb)
    _drsb                                    0x08005445   Thumb Code    22  daddsub_clz.o(x$fpl$drsb)
    __aeabi_dsub                             0x0800545d   Thumb Code     0  daddsub_clz.o(x$fpl$dsub)
    _dsub                                    0x0800545d   Thumb Code   464  daddsub_clz.o(x$fpl$dsub)
    __aeabi_f2d                              0x08005631   Thumb Code     0  f2d.o(x$fpl$f2d)
    _f2d                                     0x08005631   Thumb Code    86  f2d.o(x$fpl$f2d)
    __aeabi_fadd                             0x08005689   Thumb Code     0  faddsub_clz.o(x$fpl$fadd)
    _fadd                                    0x08005689   Thumb Code   196  faddsub_clz.o(x$fpl$fadd)
    __aeabi_f2uiz                            0x0800574d   Thumb Code     0  ffixu.o(x$fpl$ffixu)
    _ffixu                                   0x0800574d   Thumb Code    62  ffixu.o(x$fpl$ffixu)
    __aeabi_ui2f                             0x0800578d   Thumb Code     0  fflt_clz.o(x$fpl$ffltu)
    _ffltu                                   0x0800578d   Thumb Code    38  fflt_clz.o(x$fpl$ffltu)
    __aeabi_fmul                             0x080057b5   Thumb Code     0  fmul.o(x$fpl$fmul)
    _fmul                                    0x080057b5   Thumb Code   258  fmul.o(x$fpl$fmul)
    __fpl_fnaninf                            0x080058b7   Thumb Code   140  fnaninf.o(x$fpl$fnaninf)
    __fpl_fretinf                            0x08005943   Thumb Code    10  fretinf.o(x$fpl$fretinf)
    __aeabi_frsub                            0x0800594d   Thumb Code     0  faddsub_clz.o(x$fpl$frsb)
    _frsb                                    0x0800594d   Thumb Code    20  faddsub_clz.o(x$fpl$frsb)
    __aeabi_fsub                             0x08005961   Thumb Code     0  faddsub_clz.o(x$fpl$fsub)
    _fsub                                    0x08005961   Thumb Code   234  faddsub_clz.o(x$fpl$fsub)
    __fpl_return_NaN                         0x08005a4b   Thumb Code   100  retnan.o(x$fpl$retnan)
    __ARM_scalbn                             0x08005aaf   Thumb Code    92  scalbn.o(x$fpl$scalbn)
    __fpl_cmpreturn                          0x08005b0b   Thumb Code    48  trapv.o(x$fpl$trapveneer)
    __I$use$fp                               0x08005b3a   Number         0  usenofp.o(x$fpl$usenofp)
    Region$$Table$$Base                      0x080060d8   Number         0  anon$$obj.o(Region$$Table)
    Region$$Table$$Limit                     0x080060f8   Number         0  anon$$obj.o(Region$$Table)
    SystemCoreClock                          0x20000000   Data           4  system_stm32f10x.o(.data)
    AHBPrescTable                            0x20000004   Data          16  system_stm32f10x.o(.data)
    USART1_NVIC_CONFIG                       0x2000002c   Data           4  intconfig.o(.data)
    USART2_NVIC_CONFIG                       0x20000030   Data           4  intconfig.o(.data)
    USART3_NVIC_CONFIG                       0x20000034   Data           4  intconfig.o(.data)
    TIM2_NVIC_CONFIG                         0x20000038   Data           4  intconfig.o(.data)
    TIM3_NVIC_CONFIG                         0x2000003c   Data           4  intconfig.o(.data)
    TIM4_NVIC_CONFIG                         0x20000040   Data           4  intconfig.o(.data)
    DMA1_Channel7_NVIC_CONFIG                0x20000044   Data           4  intconfig.o(.data)
    EXIT1_NVIC_CONFIG                        0x20000048   Data           4  intconfig.o(.data)
    continue_or_not                          0x2000004c   Data           1  usart1.o(.data)
    u1len                                    0x20000050   Data           4  usart1.o(.data)
    action                                   0x20000054   Data           1  usart1.o(.data)
    getAction                                0x20000055   Data           1  usart1.o(.data)
    u1len_action                             0x20000058   Data           4  usart1.o(.data)
    u2len                                    0x20000060   Data           4  usart2.o(.data)
    u3len                                    0x20000064   Data           4  usart3.o(.data)
    count_sec                                0x20000068   Data           4  timer.o(.data)
    StopCondition                            0x20000074   Data           4  sdio_sdcard.o(.data)
    TransferError                            0x20000078   Data           1  sdio_sdcard.o(.data)
    TransferEnd                              0x2000007c   Data           4  sdio_sdcard.o(.data)
    DMA1_BUSY_FLAG                           0x20000080   Data           1  dma.o(.data)
    cur_steel_tim4                           0x20000082   Data           1  pwm.o(.data)
    cur_steel_tim3                           0x20000083   Data           1  pwm.o(.data)
    steel1_pst                               0x20000084   Data           2  pwm.o(.data)
    steel2_pst                               0x20000086   Data           2  pwm.o(.data)
    steel3_pst                               0x20000088   Data           2  pwm.o(.data)
    steel4_pst                               0x2000008a   Data           2  pwm.o(.data)
    InitialPosition                          0x2000008c   Data          24  config.o(.data)
    InitialPosition_with_arm                 0x200000a4   Data          30  config.o(.data)
    Pos_go_ahead                             0x200000c2   Data         264  config.o(.data)
    Pos_turn_left                            0x200001ca   Data         264  config.o(.data)
    Pos_turn_right                           0x200002d2   Data         264  config.o(.data)
    fangxia                                  0x200003da   Data          24  config.o(.data)
    shouqi                                   0x200003f2   Data          24  config.o(.data)
    state                                    0x2000040c   Data           1  action.o(.data)
    speed                                    0x20000410   Data           4  action.o(.data)
    stop                                     0x20000414   Data           1  action.o(.data)
    receive_state                            0x20000420   Data           1  protocal.o(.data)
    Present_DataLength                       0x20000422   Data           2  protocal.o(.data)
    GetProtocal                              0x20000424   Data           1  protocal.o(.data)
    rand                                     0x20000428   Data           4  protocal.o(.data)
    ax_receive                               0x2000042c   Data           1  protocal.o(.data)
    fds                                      0x20000430   Data           1  file.o(.data)
    cur_time_ms                              0x20000434   Data           4  file.o(.data)
    next_action_ms                           0x20000438   Data           4  file.o(.data)
    order_flag                               0x2000043c   Data           1  file.o(.data)
    u1buf                                    0x20000450   Data         256  usart1.o(.bss)
    u1buf_action                             0x20000550   Data         256  usart1.o(.bss)
    u2buf                                    0x20000650   Data         256  usart2.o(.bss)
    u3buf                                    0x20000750   Data         512  usart3.o(.bss)
    SDCardInfo                               0x20000980   Data          80  sdio_sdcard.o(.bss)
    SDIO_InitStructure                       0x200009d0   Data          24  sdio_sdcard.o(.bss)
    SDIO_CmdInitStructure                    0x200009e8   Data          20  sdio_sdcard.o(.bss)
    SDIO_DataInitStructure                   0x200009fc   Data          24  sdio_sdcard.o(.bss)
    Command_Buffer                           0x20000c14   Data         208  protocal.o(.bss)
    Ax_Position                              0x20000ce4   Data         100  protocal.o(.bss)
    ax_long_receive                          0x20000d48   Data         200  protocal.o(.bss)
    fs                                       0x20000e10   Data         564  file.o(.bss)
    __libspace_start                         0x20001720   Data          96  libspace.o(.bss)
    __temporary_stack_top$libspace           0x20001780   Data           0  libspace.o(.bss)



==============================================================================

Memory Map of the image

  Image Entry point : 0x08000211

  Load Region LR_1 (Base: 0x08000000, Size: 0x00006548, Max: 0xffffffff, ABSOLUTE, COMPRESSED[0x000061e8])

    Execution Region ER_RO (Base: 0x08000000, Size: 0x000060f8, Max: 0xffffffff, ABSOLUTE)

    Base Addr    Size         Type   Attr      Idx    E Section Name        Object

    0x08000000   0x00000130   Data   RO          414    RESET               startup_stm32f10x_hd.o
    0x08000130   0x00000008   Code   RO         4767  * !!!main             c_w.l(__main.o)
    0x08000138   0x00000034   Code   RO         5056    !!!scatter          c_w.l(__scatter.o)
    0x0800016c   0x0000005a   Code   RO         5054    !!dczerorl2         c_w.l(__dczerorl2.o)
    0x080001c6   0x00000002   PAD
    0x080001c8   0x0000001c   Code   RO         5058    !!handler_zi        c_w.l(__scatter_zi.o)
    0x080001e4   0x00000000   Code   RO         4754    .ARM.Collect$$_printf_percent$$00000000  c_w.l(_printf_percent.o)
    0x080001e4   0x00000004   Code   RO         4838    .ARM.Collect$$_printf_percent$$00000017  c_w.l(_printf_percent_end.o)
    0x080001e8   0x00000002   Code   RO         4926    .ARM.Collect$$libinit$$00000000  c_w.l(libinit.o)
    0x080001ea   0x00000000   Code   RO         4932    .ARM.Collect$$libinit$$00000002  c_w.l(libinit2.o)
    0x080001ea   0x00000000   Code   RO         4934    .ARM.Collect$$libinit$$00000004  c_w.l(libinit2.o)
    0x080001ea   0x00000000   Code   RO         4937    .ARM.Collect$$libinit$$0000000A  c_w.l(libinit2.o)
    0x080001ea   0x00000000   Code   RO         4939    .ARM.Collect$$libinit$$0000000C  c_w.l(libinit2.o)
    0x080001ea   0x00000000   Code   RO         4941    .ARM.Collect$$libinit$$0000000E  c_w.l(libinit2.o)
    0x080001ea   0x00000000   Code   RO         4944    .ARM.Collect$$libinit$$00000011  c_w.l(libinit2.o)
    0x080001ea   0x00000000   Code   RO         4946    .ARM.Collect$$libinit$$00000013  c_w.l(libinit2.o)
    0x080001ea   0x00000000   Code   RO         4948    .ARM.Collect$$libinit$$00000015  c_w.l(libinit2.o)
    0x080001ea   0x00000000   Code   RO         4950    .ARM.Collect$$libinit$$00000017  c_w.l(libinit2.o)
    0x080001ea   0x00000000   Code   RO         4952    .ARM.Collect$$libinit$$00000019  c_w.l(libinit2.o)
    0x080001ea   0x00000000   Code   RO         4954    .ARM.Collect$$libinit$$0000001B  c_w.l(libinit2.o)
    0x080001ea   0x00000000   Code   RO         4956    .ARM.Collect$$libinit$$0000001D  c_w.l(libinit2.o)
    0x080001ea   0x00000000   Code   RO         4958    .ARM.Collect$$libinit$$0000001F  c_w.l(libinit2.o)
    0x080001ea   0x00000000   Code   RO         4960    .ARM.Collect$$libinit$$00000021  c_w.l(libinit2.o)
    0x080001ea   0x00000000   Code   RO         4962    .ARM.Collect$$libinit$$00000023  c_w.l(libinit2.o)
    0x080001ea   0x00000000   Code   RO         4964    .ARM.Collect$$libinit$$00000025  c_w.l(libinit2.o)
    0x080001ea   0x00000000   Code   RO         4968    .ARM.Collect$$libinit$$0000002C  c_w.l(libinit2.o)
    0x080001ea   0x00000000   Code   RO         4970    .ARM.Collect$$libinit$$0000002E  c_w.l(libinit2.o)
    0x080001ea   0x00000000   Code   RO         4972    .ARM.Collect$$libinit$$00000030  c_w.l(libinit2.o)
    0x080001ea   0x00000000   Code   RO         4974    .ARM.Collect$$libinit$$00000032  c_w.l(libinit2.o)
    0x080001ea   0x00000002   Code   RO         4975    .ARM.Collect$$libinit$$00000033  c_w.l(libinit2.o)
    0x080001ec   0x00000002   Code   RO         4997    .ARM.Collect$$libshutdown$$00000000  c_w.l(libshutdown.o)
    0x080001ee   0x00000000   Code   RO         5008    .ARM.Collect$$libshutdown$$00000003  c_w.l(libshutdown2.o)
    0x080001ee   0x00000000   Code   RO         5011    .ARM.Collect$$libshutdown$$00000006  c_w.l(libshutdown2.o)
    0x080001ee   0x00000000   Code   RO         5014    .ARM.Collect$$libshutdown$$00000009  c_w.l(libshutdown2.o)
    0x080001ee   0x00000000   Code   RO         5016    .ARM.Collect$$libshutdown$$0000000B  c_w.l(libshutdown2.o)
    0x080001ee   0x00000000   Code   RO         5019    .ARM.Collect$$libshutdown$$0000000E  c_w.l(libshutdown2.o)
    0x080001ee   0x00000002   Code   RO         5020    .ARM.Collect$$libshutdown$$0000000F  c_w.l(libshutdown2.o)
    0x080001f0   0x00000000   Code   RO         4827    .ARM.Collect$$rtentry$$00000000  c_w.l(__rtentry.o)
    0x080001f0   0x00000000   Code   RO         4879    .ARM.Collect$$rtentry$$00000002  c_w.l(__rtentry2.o)
    0x080001f0   0x00000006   Code   RO         4891    .ARM.Collect$$rtentry$$00000004  c_w.l(__rtentry4.o)
    0x080001f6   0x00000000   Code   RO         4881    .ARM.Collect$$rtentry$$00000009  c_w.l(__rtentry2.o)
    0x080001f6   0x00000004   Code   RO         4882    .ARM.Collect$$rtentry$$0000000A  c_w.l(__rtentry2.o)
    0x080001fa   0x00000000   Code   RO         4884    .ARM.Collect$$rtentry$$0000000C  c_w.l(__rtentry2.o)
    0x080001fa   0x00000008   Code   RO         4885    .ARM.Collect$$rtentry$$0000000D  c_w.l(__rtentry2.o)
    0x08000202   0x00000002   Code   RO         4929    .ARM.Collect$$rtexit$$00000000  c_w.l(rtexit.o)
    0x08000204   0x00000000   Code   RO         4979    .ARM.Collect$$rtexit$$00000002  c_w.l(rtexit2.o)
    0x08000204   0x00000004   Code   RO         4980    .ARM.Collect$$rtexit$$00000003  c_w.l(rtexit2.o)
    0x08000208   0x00000006   Code   RO         4981    .ARM.Collect$$rtexit$$00000004  c_w.l(rtexit2.o)
    0x0800020e   0x00000002   PAD
    0x08000210   0x00000040   Code   RO          415  * .text               startup_stm32f10x_hd.o
    0x08000250   0x00000002   Code   RO         4719    .text               c_w.l(use_no_semi_2.o)
    0x08000252   0x00000002   PAD
    0x08000254   0x00000028   Code   RO         4727    .text               c_w.l(noretval__2sprintf.o)
    0x0800027c   0x00000068   Code   RO         4729    .text               c_w.l(__printf.o)
    0x080002e4   0x0000003e   Code   RO         4755    .text               c_w.l(strlen.o)
    0x08000322   0x0000004e   Code   RO         4763    .text               c_w.l(rt_memclr_w.o)
    0x08000370   0x00000006   Code   RO         4765    .text               c_w.l(heapauxi.o)
    0x08000376   0x00000002   Code   RO         4825    .text               c_w.l(use_no_semi.o)
    0x08000378   0x00000016   Code   RO         4828    .text               c_w.l(_rserrno.o)
    0x0800038e   0x00000002   PAD
    0x08000390   0x00000030   Code   RO         4832    .text               c_w.l(_printf_char_common.o)
    0x080003c0   0x0000000a   Code   RO         4834    .text               c_w.l(_sputc.o)
    0x080003ca   0x00000002   PAD
    0x080003cc   0x00000008   Code   RO         4896    .text               c_w.l(rt_errno_addr_intlibspace.o)
    0x080003d4   0x00000008   Code   RO         4914    .text               c_w.l(libspace.o)
    0x080003dc   0x0000004a   Code   RO         4917    .text               c_w.l(sys_stackheap_outer.o)
    0x08000426   0x0000000c   Code   RO         4919    .text               c_w.l(exit.o)
    0x08000432   0x00000024   Code   RO         3910    i.Arm_down          action.o
    0x08000456   0x00000048   Code   RO         3911    i.Arm_lean_backward  action.o
    0x0800049e   0x00000048   Code   RO         3912    i.Arm_lean_forward  action.o
    0x080004e6   0x00000024   Code   RO         3913    i.Arm_turn_left     action.o
    0x0800050a   0x00000024   Code   RO         3914    i.Arm_turn_right    action.o
    0x0800052e   0x00000024   Code   RO         3915    i.Arm_up            action.o
    0x08000552   0x00000004   Code   RO          227    i.BusFault_Handler  stm32f10x_it.o
    0x08000556   0x0000002c   Code   RO         3599    i.CmdError          sdio_sdcard.o
    0x08000582   0x00000002   PAD
    0x08000584   0x00000028   Code   RO         3600    i.CmdResp1Error     sdio_sdcard.o
    0x080005ac   0x0000004c   Code   RO         3601    i.CmdResp2Error     sdio_sdcard.o
    0x080005f8   0x00000038   Code   RO         3602    i.CmdResp3Error     sdio_sdcard.o
    0x08000630   0x0000009c   Code   RO         3603    i.CmdResp6Error     sdio_sdcard.o
    0x080006cc   0x0000004c   Code   RO         3604    i.CmdResp7Error     sdio_sdcard.o
    0x08000718   0x00000060   Code   RO         3916    i.Come_up           action.o
    0x08000778   0x0000002c   Code   RO         3818    i.DMA1_Channel2_IRQHandler  dma.o
    0x080007a4   0x0000001c   Code   RO         1144    i.DMA_ClearFlag     stm32f10x_dma.o
    0x080007c0   0x00000018   Code   RO         1146    i.DMA_Cmd           stm32f10x_dma.o
    0x080007d8   0x0000002c   Code   RO         1149    i.DMA_GetFlagStatus  stm32f10x_dma.o
    0x08000804   0x0000003c   Code   RO         1152    i.DMA_Init          stm32f10x_dma.o
    0x08000840   0x00000002   Code   RO          228    i.DebugMon_Handler  stm32f10x_it.o
    0x08000842   0x00000002   PAD
    0x08000844   0x00000060   Code   RO         3917    i.Dive              action.o
    0x080008a4   0x00000064   Code   RO         3873    i.EXTI1_IRQHandler  key.o
    0x08000908   0x0000003c   Code   RO         3874    i.EXTIX_Init        key.o
    0x08000944   0x0000000c   Code   RO         1217    i.EXTI_ClearITPendingBit  stm32f10x_exti.o
    0x08000950   0x00000094   Code   RO         1222    i.EXTI_Init         stm32f10x_exti.o
    0x080009e4   0x0000009c   Code   RO         3918    i.ExAction          action.o
    0x08000a80   0x00000078   Code   RO         4612    i.FileSystemInit    file.o
    0x08000af8   0x0000019c   Code   RO         3605    i.FindSCR           sdio_sdcard.o
    0x08000c94   0x00000040   Code   RO         1567    i.GPIO_EXTILineConfig  stm32f10x_gpio.o
    0x08000cd4   0x00000116   Code   RO         1570    i.GPIO_Init         stm32f10x_gpio.o
    0x08000dea   0x00000004   Code   RO         1578    i.GPIO_SetBits      stm32f10x_gpio.o
    0x08000dee   0x00000002   PAD
    0x08000df0   0x00000134   Code   RO         3919    i.Go_forward        action.o
    0x08000f24   0x00000004   Code   RO          229    i.HardFault_Handler  stm32f10x_it.o
    0x08000f28   0x00000064   Code   RO         3560    i.LED_Init          led.o
    0x08000f8c   0x00000022   Code   RO         4438    i.LobotCheckSum     ax12.o
    0x08000fae   0x00000004   Code   RO          230    i.MemManage_Handler  stm32f10x_it.o
    0x08000fb2   0x00000002   Code   RO          231    i.NMI_Handler       stm32f10x_it.o
    0x08000fb4   0x00000070   Code   RO          419    i.NVIC_Init         misc.o
    0x08001024   0x00000002   Code   RO          232    i.PendSV_Handler    stm32f10x_it.o
    0x08001026   0x00000002   PAD
    0x08001028   0x00000020   Code   RO         1985    i.RCC_AHBPeriphClockCmd  stm32f10x_rcc.o
    0x08001048   0x00000020   Code   RO         1986    i.RCC_APB1PeriphClockCmd  stm32f10x_rcc.o
    0x08001068   0x00000020   Code   RO         1988    i.RCC_APB2PeriphClockCmd  stm32f10x_rcc.o
    0x08001088   0x000000d4   Code   RO         1996    i.RCC_GetClocksFreq  stm32f10x_rcc.o
    0x0800115c   0x0000011c   Code   RO         3607    i.SDEnWideBus       sdio_sdcard.o
    0x08001278   0x0000000c   Code   RO         2275    i.SDIO_ClearFlag    stm32f10x_sdio.o
    0x08001284   0x0000000c   Code   RO         2277    i.SDIO_ClockCmd     stm32f10x_sdio.o
    0x08001290   0x0000000c   Code   RO         2280    i.SDIO_DMACmd       stm32f10x_sdio.o
    0x0800129c   0x00000030   Code   RO         2281    i.SDIO_DataConfig   stm32f10x_sdio.o
    0x080012cc   0x00000024   Code   RO         2283    i.SDIO_DeInit       stm32f10x_sdio.o
    0x080012f0   0x0000000c   Code   RO         2284    i.SDIO_GetCommandResponse  stm32f10x_sdio.o
    0x080012fc   0x00000018   Code   RO         2287    i.SDIO_GetFlagStatus  stm32f10x_sdio.o
    0x08001314   0x00000010   Code   RO         2289    i.SDIO_GetPowerState  stm32f10x_sdio.o
    0x08001324   0x00000018   Code   RO         2290    i.SDIO_GetResponse  stm32f10x_sdio.o
    0x0800133c   0x00000020   Code   RO         2291    i.SDIO_ITConfig     stm32f10x_sdio.o
    0x0800135c   0x00000030   Code   RO         2292    i.SDIO_Init         stm32f10x_sdio.o
    0x0800138c   0x0000000c   Code   RO         2293    i.SDIO_ReadData     stm32f10x_sdio.o
    0x08001398   0x0000002c   Code   RO         2295    i.SDIO_SendCommand  stm32f10x_sdio.o
    0x080013c4   0x0000001c   Code   RO         2297    i.SDIO_SetPowerState  stm32f10x_sdio.o
    0x080013e0   0x00000010   Code   RO         3608    i.SD_DMAEndOfTransferStatus  sdio_sdcard.o
    0x080013f0   0x00000064   Code   RO         3609    i.SD_DMA_RxConfig   sdio_sdcard.o
    0x08001454   0x00000064   Code   RO         3610    i.SD_DMA_TxConfig   sdio_sdcard.o
    0x080014b8   0x00000094   Code   RO         3612    i.SD_EnableWideBusOperation  sdio_sdcard.o
    0x0800154c   0x00000050   Code   RO         3614    i.SD_GPIO_Configuration  sdio_sdcard.o
    0x0800159c   0x000002cc   Code   RO         3615    i.SD_GetCardInfo    sdio_sdcard.o
    0x08001868   0x0000001a   Code   RO         3617    i.SD_GetState       sdio_sdcard.o
    0x08001882   0x0000001e   Code   RO         3618    i.SD_GetStatus      sdio_sdcard.o
    0x080018a0   0x00000070   Code   RO         3620    i.SD_Init           sdio_sdcard.o
    0x08001910   0x0000013c   Code   RO         3621    i.SD_InitializeCards  sdio_sdcard.o
    0x08001a4c   0x00000188   Code   RO         3623    i.SD_PowerON        sdio_sdcard.o
    0x08001bd4   0x000000dc   Code   RO         3625    i.SD_ReadBlock      sdio_sdcard.o
    0x08001cb0   0x00000034   Code   RO         3627    i.SD_SelectDeselect  sdio_sdcard.o
    0x08001ce4   0x00000038   Code   RO         3629    i.SD_SendStatus     sdio_sdcard.o
    0x08001d1c   0x00000034   Code   RO         3631    i.SD_WaitReadOperation  sdio_sdcard.o
    0x08001d50   0x0000003c   Code   RO         3632    i.SD_WaitWriteOperation  sdio_sdcard.o
    0x08001d8c   0x000000dc   Code   RO         3633    i.SD_WriteBlock     sdio_sdcard.o
    0x08001e68   0x00000148   Code   RO         3634    i.SD_WriteMultiBlocks  sdio_sdcard.o
    0x08001fb0   0x00000002   Code   RO          233    i.SVC_Handler       stm32f10x_it.o
    0x08001fb2   0x00000008   Code   RO          193    i.SetSysClock       system_stm32f10x.o
    0x08001fba   0x00000002   PAD
    0x08001fbc   0x000000e0   Code   RO          194    i.SetSysClockTo72   system_stm32f10x.o
    0x0800209c   0x00000014   Code   RO         3921    i.Shou_qi           action.o
    0x080020b0   0x0000007c   Code   RO         3922    i.Speed_down        action.o
    0x0800212c   0x0000007c   Code   RO         3923    i.Speed_up          action.o
    0x080021a8   0x00000028   Code   RO          423    i.SysTick_CLKSourceConfig  misc.o
    0x080021d0   0x00000002   Code   RO          234    i.SysTick_Handler   stm32f10x_it.o
    0x080021d2   0x00000002   PAD
    0x080021d4   0x00000060   Code   RO          196    i.SystemInit        system_stm32f10x.o
    0x08002234   0x00000024   Code   RO         3572    i.TIM2_IRQHandler   timer.o
    0x08002258   0x0000004c   Code   RO         3573    i.TIM2_Init         timer.o
    0x080022a4   0x000000c0   Code   RO         3846    i.TIM4_IRQHandler   pwm.o
    0x08002364   0x00000006   Code   RO         2615    i.TIM_ClearITPendingBit  stm32f10x_tim.o
    0x0800236a   0x00000018   Code   RO         2620    i.TIM_Cmd           stm32f10x_tim.o
    0x08002382   0x00000022   Code   RO         2641    i.TIM_GetITStatus   stm32f10x_tim.o
    0x080023a4   0x00000012   Code   RO         2645    i.TIM_ITConfig      stm32f10x_tim.o
    0x080023b6   0x00000002   PAD
    0x080023b8   0x000000a4   Code   RO         2691    i.TIM_TimeBaseInit  stm32f10x_tim.o
    0x0800245c   0x00000134   Code   RO         3924    i.Turn_left         action.o
    0x08002590   0x00000134   Code   RO         3925    i.Turn_right        action.o
    0x080026c4   0x00000140   Code   RO         3432    i.USART1_IRQHandler  usart1.o
    0x08002804   0x00000034   Code   RO         3472    i.USART2_IRQHandler  usart2.o
    0x08002838   0x00000034   Code   RO         3504    i.USART3_IRQHandler  usart3.o
    0x0800286c   0x000000d8   Code   RO         3163    i.USART_Init        stm32f10x_usart.o
    0x08002944   0x00000004   Code   RO          235    i.UsageFault_Handler  stm32f10x_it.o
    0x08002948   0x00000028   Code   RO         4910    i.__ARM_fpclassify  m_ws.l(fpclassify.o)
    0x08002970   0x00000388   Code   RO         4867    i.__ieee754_rem_pio2  m_ws.l(rred.o)
    0x08002cf8   0x000000fc   Code   RO         4850    i.__kernel_cos      m_ws.l(cos_i.o)
    0x08002df4   0x000000aa   Code   RO         4912    i.__kernel_poly     m_ws.l(poly.o)
    0x08002e9e   0x00000002   PAD
    0x08002ea0   0x000000ec   Code   RO         4872    i.__kernel_sin      m_ws.l(sin_i.o)
    0x08002f8c   0x00000006   Code   RO         4854    i.__mathlib_dbl_infnan  m_ws.l(dunder.o)
    0x08002f92   0x0000000c   Code   RO         4856    i.__mathlib_dbl_invalid  m_ws.l(dunder.o)
    0x08002f9e   0x00000002   PAD
    0x08002fa0   0x00000010   Code   RO         4859    i.__mathlib_dbl_underflow  m_ws.l(dunder.o)
    0x08002fb0   0x00000004   Code   RO         3398    i._sys_exit         ustdout.o
    0x08002fb4   0x0000002a   Code   RO         4439    i.axAllPosition     ax12.o
    0x08002fde   0x0000005e   Code   RO         4441    i.axAnalizePosition  ax12.o
    0x0800303c   0x0000005c   Code   RO         4443    i.axGetPosition     ax12.o
    0x08003098   0x00000082   Code   RO         4447    i.axSendPack        ax12.o
    0x0800311a   0x0000003c   Code   RO         4448    i.axSendPosition    ax12.o
    0x08003156   0x00000010   Code   RO         4450    i.ax_usartx_senddat  ax12.o
    0x08003166   0x00000002   PAD
    0x08003168   0x0000007c   Code   RO         4067    i.check_fs          ff.o
    0x080031e4   0x00000014   Code   RO         4068    i.chk_chr           ff.o
    0x080031f8   0x0000001a   Code   RO         4069    i.clust2sect        ff.o
    0x08003212   0x00000002   PAD
    0x08003214   0x00000098   Code   RO         4070    i.cmp_lfn           ff.o
    0x080032ac   0x000000e0   Code   RO         4071    i.create_chain      ff.o
    0x0800338c   0x00000230   Code   RO         4072    i.create_name       ff.o
    0x080035bc   0x00000044   Code   RO          290    i.delay_init        delay.o
    0x08003600   0x0000004c   Code   RO          291    i.delay_ms          delay.o
    0x0800364c   0x00000060   Code   RO         4073    i.dir_alloc         ff.o
    0x080036ac   0x000000fc   Code   RO         4074    i.dir_find          ff.o
    0x080037a8   0x0000010c   Code   RO         4075    i.dir_next          ff.o
    0x080038b4   0x00000142   Code   RO         4077    i.dir_register      ff.o
    0x080039f6   0x0000009a   Code   RO         4079    i.dir_sdi           ff.o
    0x08003a90   0x00000014   Code   RO         4022    i.disk_initialize   diskio.o
    0x08003aa4   0x00000034   Code   RO         4023    i.disk_ioctl        diskio.o
    0x08003ad8   0x0000003a   Code   RO         4024    i.disk_read         diskio.o
    0x08003b12   0x00000006   Code   RO         4025    i.disk_status       diskio.o
    0x08003b18   0x0000004e   Code   RO         4026    i.disk_write        diskio.o
    0x08003b66   0x00000018   Code   RO         4081    i.f_closedir        ff.o
    0x08003b7e   0x0000015e   Code   RO         4085    i.f_mkdir           ff.o
    0x08003cdc   0x0000005c   Code   RO         4087    i.f_mount           ff.o
    0x08003d38   0x00000070   Code   RO         4089    i.f_opendir         ff.o
    0x08003da8   0x0000004c   Code   RO         4409    i.ff_convert        ccsbcs.o
    0x08003df4   0x000000a4   Code   RO         4410    i.ff_wtoupper       ccsbcs.o
    0x08003e98   0x00000300   Code   RO         4101    i.find_volume       ff.o
    0x08004198   0x000000a2   Code   RO         4102    i.follow_path       ff.o
    0x0800423a   0x00000002   PAD
    0x0800423c   0x000000b4   Code   RO         4103    i.gen_numname       ff.o
    0x080042f0   0x000000e0   Code   RO         4104    i.get_fat           ff.o
    0x080043d0   0x00000004   Code   RO         4027    i.get_fattime       diskio.o
    0x080043d4   0x00000048   Code   RO         4106    i.get_ldnumber      ff.o
    0x0800441c   0x0000003c   Code   RO         3875    i.key_init          key.o
    0x08004458   0x00000026   Code   RO         4107    i.ld_clust          ff.o
    0x0800447e   0x00000018   Code   RO         4108    i.ld_dword          ff.o
    0x08004496   0x0000000c   Code   RO         4109    i.ld_word           ff.o
    0x080044a2   0x00000002   PAD
    0x080044a4   0x00000090   Code   RO            1    i.main              main.o
    0x08004534   0x00000024   Code   RO         4110    i.mem_cmp           ff.o
    0x08004558   0x0000001a   Code   RO         4111    i.mem_cpy           ff.o
    0x08004572   0x00000012   Code   RO         4112    i.mem_set           ff.o
    0x08004584   0x00000034   Code   RO         4113    i.move_window       ff.o
    0x080045b8   0x00000138   Code   RO         4115    i.put_fat           ff.o
    0x080046f0   0x00000080   Code   RO         4116    i.put_lfn           ff.o
    0x08004770   0x00000096   Code   RO         4120    i.remove_chain      ff.o
    0x08004806   0x00000002   PAD
    0x08004808   0x000000a0   Code   RO         4818    i.sin               m_ws.l(sin.o)
    0x080048a8   0x00000024   Code   RO         4121    i.st_clust          ff.o
    0x080048cc   0x00000018   Code   RO         4122    i.st_dword          ff.o
    0x080048e4   0x0000000c   Code   RO         4123    i.st_word           ff.o
    0x080048f0   0x00000020   Code   RO         4124    i.sum_sfn           ff.o
    0x08004910   0x00000090   Code   RO         4125    i.sync_fs           ff.o
    0x080049a0   0x00000052   Code   RO         4126    i.sync_window       ff.o
    0x080049f2   0x00000002   PAD
    0x080049f4   0x0000008c   Code   RO         3433    i.usart1_init       usart1.o
    0x08004a80   0x000000a4   Code   RO         3505    i.usart3_init       usart3.o
    0x08004b24   0x0000003c   Code   RO         3506    i.usart3_senddat    usart3.o
    0x08004b60   0x00000028   Code   RO         3536    i.usart_moderx      usart_tren.o
    0x08004b88   0x00000028   Code   RO         3537    i.usart_modetx      usart_tren.o
    0x08004bb0   0x00000030   Code   RO         3538    i.usart_tren_init   usart_tren.o
    0x08004be0   0x00000042   Code   RO         4127    i.validate          ff.o
    0x08004c22   0x00000002   PAD
    0x08004c24   0x00000062   Code   RO         4769    x$fpl$d2f           fz_ws.l(d2f.o)
    0x08004c86   0x00000002   PAD
    0x08004c88   0x00000150   Code   RO         4771    x$fpl$dadd          fz_ws.l(daddsub_clz.o)
    0x08004dd8   0x00000010   Code   RO         4927    x$fpl$dcheck1       fz_ws.l(dcheck1.o)
    0x08004de8   0x00000018   Code   RO         4839    x$fpl$dcmpinf       fz_ws.l(dcmpi.o)
    0x08004e00   0x000002b0   Code   RO         4778    x$fpl$ddiv          fz_ws.l(ddiv.o)
    0x080050b0   0x0000005e   Code   RO         4904    x$fpl$dfix          fz_ws.l(dfix.o)
    0x0800510e   0x0000002e   Code   RO         4786    x$fpl$dflt          fz_ws.l(dflt_clz.o)
    0x0800513c   0x00000026   Code   RO         4785    x$fpl$dfltu         fz_ws.l(dflt_clz.o)
    0x08005162   0x00000002   PAD
    0x08005164   0x00000078   Code   RO         4791    x$fpl$dleqf         fz_ws.l(dleqf.o)
    0x080051dc   0x00000154   Code   RO         4793    x$fpl$dmul          fz_ws.l(dmul.o)
    0x08005330   0x0000009c   Code   RO         4841    x$fpl$dnaninf       fz_ws.l(dnaninf.o)
    0x080053cc   0x0000000c   Code   RO         4843    x$fpl$dretinf       fz_ws.l(dretinf.o)
    0x080053d8   0x0000006c   Code   RO         4795    x$fpl$drleqf        fz_ws.l(drleqf.o)
    0x08005444   0x00000016   Code   RO         4772    x$fpl$drsb          fz_ws.l(daddsub_clz.o)
    0x0800545a   0x00000002   PAD
    0x0800545c   0x000001d4   Code   RO         4773    x$fpl$dsub          fz_ws.l(daddsub_clz.o)
    0x08005630   0x00000056   Code   RO         4797    x$fpl$f2d           fz_ws.l(f2d.o)
    0x08005686   0x00000002   PAD
    0x08005688   0x000000c4   Code   RO         4799    x$fpl$fadd          fz_ws.l(faddsub_clz.o)
    0x0800574c   0x0000003e   Code   RO         4805    x$fpl$ffixu         fz_ws.l(ffixu.o)
    0x0800578a   0x00000002   PAD
    0x0800578c   0x00000026   Code   RO         4809    x$fpl$ffltu         fz_ws.l(fflt_clz.o)
    0x080057b2   0x00000002   PAD
    0x080057b4   0x00000102   Code   RO         4815    x$fpl$fmul          fz_ws.l(fmul.o)
    0x080058b6   0x0000008c   Code   RO         4845    x$fpl$fnaninf       fz_ws.l(fnaninf.o)
    0x08005942   0x0000000a   Code   RO         4847    x$fpl$fretinf       fz_ws.l(fretinf.o)
    0x0800594c   0x00000014   Code   RO         4800    x$fpl$frsb          fz_ws.l(faddsub_clz.o)
    0x08005960   0x000000ea   Code   RO         4801    x$fpl$fsub          fz_ws.l(faddsub_clz.o)
    0x08005a4a   0x00000064   Code   RO         4976    x$fpl$retnan        fz_ws.l(retnan.o)
    0x08005aae   0x0000005c   Code   RO         4908    x$fpl$scalbn        fz_ws.l(scalbn.o)
    0x08005b0a   0x00000030   Code   RO         4989    x$fpl$trapveneer    fz_ws.l(trapv.o)
    0x08005b3a   0x00000000   Code   RO         4849    x$fpl$usenofp       fz_ws.l(usenofp.o)
    0x08005b3a   0x00000002   PAD
    0x08005b3c   0x00000010   Data   RO         3436    .constdata          usart1.o
    0x08005b4c   0x00000010   Data   RO         3508    .constdata          usart3.o
    0x08005b5c   0x000000aa   Data   RO         4129    .constdata          ff.o
    0x08005c06   0x000003ae   Data   RO         4411    .constdata          ccsbcs.o
    0x08005fb4   0x00000004   PAD
    0x08005fb8   0x00000030   Data   RO         4851    .constdata          m_ws.l(cos_i.o)
    0x08005fe8   0x000000c8   Data   RO         4869    .constdata          m_ws.l(rred.o)
    0x080060b0   0x00000028   Data   RO         4873    .constdata          m_ws.l(sin_i.o)
    0x080060d8   0x00000020   Data   RO         5052    Region$$Table       anon$$obj.o


    Execution Region ER_RW (Base: 0x20000000, Size: 0x00000450, Max: 0xffffffff, ABSOLUTE, COMPRESSED[0x000000f0])

    Base Addr    Size         Type   Attr      Idx    E Section Name        Object

    0x20000000   0x00000014   Data   RW          197    .data               system_stm32f10x.o
    0x20000014   0x00000004   Data   RW          293    .data               delay.o
    0x20000018   0x00000014   Data   RW         2016    .data               stm32f10x_rcc.o
    0x2000002c   0x00000020   Data   RW         3386    .data               intconfig.o
    0x2000004c   0x00000011   Data   RW         3437    .data               usart1.o
    0x2000005d   0x00000003   PAD
    0x20000060   0x00000004   Data   RW         3477    .data               usart2.o
    0x20000064   0x00000004   Data   RW         3509    .data               usart3.o
    0x20000068   0x00000004   Data   RW         3575    .data               timer.o
    0x2000006c   0x00000014   Data   RW         3637    .data               sdio_sdcard.o
    0x20000080   0x00000001   Data   RW         3822    .data               dma.o
    0x20000081   0x00000001   PAD
    0x20000082   0x0000000a   Data   RW         3849    .data               pwm.o
    0x2000008c   0x0000037e   Data   RW         3898    .data               config.o
    0x2000040a   0x00000002   PAD
    0x2000040c   0x00000009   Data   RW         3926    .data               action.o
    0x20000415   0x00000003   PAD
    0x20000418   0x00000006   Data   RW         4130    .data               ff.o
    0x2000041e   0x00000002   PAD
    0x20000420   0x0000000d   Data   RW         4557    .data               protocal.o
    0x2000042d   0x00000003   PAD
    0x20000430   0x0000001e   Data   RW         4622    .data               file.o


    Execution Region ER_ZI (Base: 0x20000450, Size: 0x00001930, Max: 0xffffffff, ABSOLUTE)

    Base Addr    Size         Type   Attr      Idx    E Section Name        Object

    0x20000450   0x00000200   Zero   RW         3435    .bss                usart1.o
    0x20000650   0x00000100   Zero   RW         3475    .bss                usart2.o
    0x20000750   0x00000200   Zero   RW         3507    .bss                usart3.o
    0x20000950   0x000000c4   Zero   RW         3636    .bss                sdio_sdcard.o
    0x20000a14   0x00000200   Zero   RW         4128    .bss                ff.o
    0x20000c14   0x000001fc   Zero   RW         4556    .bss                protocal.o
    0x20000e10   0x00000910   Zero   RW         4620    .bss                file.o
    0x20001720   0x00000060   Zero   RW         4915    .bss                c_w.l(libspace.o)
    0x20001780   0x00000200   Zero   RW          413    HEAP                startup_stm32f10x_hd.o
    0x20001980   0x00000400   Zero   RW          412    STACK               startup_stm32f10x_hd.o


==============================================================================

Image component sizes


      Code (inc. data)   RO Data    RW Data    ZI Data      Debug   Object Name

      1828        174          0          9          0       7835   action.o
       468         10          0          0          0       5814   ax12.o
       240         24        942          0          0       2319   ccsbcs.o
         0          0          0        894          0        911   config.o
       144         22          0          4          0     207940   delay.o
       218          6          0          0          0       4428   diskio.o
        44         10          0          1          0        632   dma.o
      5374         82        170          6        512      34282   ff.o
       120         28          0         30       2320       4256   file.o
         0          0          0         32          0        614   intconfig.o
       220         44          0          0          0       1375   key.o
       100          8          0          0          0        475   led.o
       144         24          0          0          0      75883   main.o
       152         12          0          0          0       1442   misc.o
         0          0          0         13        508       2837   protocal.o
       192         22          0         10          0        914   pwm.o
      4168        294          0         20        196      20367   sdio_sdcard.o
        64         26        304          0       1536        772   startup_stm32f10x_hd.o
       156         18          0          0          0       3721   stm32f10x_dma.o
       160         12          0          0          0       1401   stm32f10x_exti.o
       346          4          0          0          0       2965   stm32f10x_gpio.o
        26          0          0          0          0       3398   stm32f10x_it.o
       308         38          0         20          0       4802   stm32f10x_rcc.o
       360         80          0          0          0       8650   stm32f10x_sdio.o
       246         42          0          0          0       3334   stm32f10x_tim.o
       216          6          0          0          0       2213   stm32f10x_usart.o
         0          0          0          0          0         32   sys.o
       328         28          0         20          0       1917   system_stm32f10x.o
       112          8          0          4          0       1126   timer.o
       460         66         16         17        512       2003   usart1.o
        52         14          0          4        256       1002   usart2.o
       276         38         16          4        512       2021   usart3.o
       128         30          0          0          0       1348   usart_tren.o
         4          0          0          0          0        432   ustdout.o

    ----------------------------------------------------------------------
     16682       1170       1484       1104       6352     413461   Object Totals
         0          0         32          0          0          0   (incl. Generated)
        28          0          4         16          0          0   (incl. Padding)

    ----------------------------------------------------------------------

      Code (inc. data)   RO Data    RW Data    ZI Data      Debug   Library Member Name

        90          0          0          0          0          0   __dczerorl2.o
         8          0          0          0          0         68   __main.o
       104          0          0          0          0         84   __printf.o
         0          0          0          0          0          0   __rtentry.o
        12          0          0          0          0          0   __rtentry2.o
         6          0          0          0          0          0   __rtentry4.o
        52          8          0          0          0          0   __scatter.o
        28          0          0          0          0          0   __scatter_zi.o
        48          6          0          0          0         96   _printf_char_common.o
         0          0          0          0          0          0   _printf_percent.o
         4          0          0          0          0          0   _printf_percent_end.o
        22          0          0          0          0        100   _rserrno.o
        10          0          0          0          0         68   _sputc.o
        12          0          0          0          0         72   exit.o
         6          0          0          0          0        152   heapauxi.o
         2          0          0          0          0          0   libinit.o
         2          0          0          0          0          0   libinit2.o
         2          0          0          0          0          0   libshutdown.o
         2          0          0          0          0          0   libshutdown2.o
         8          4          0          0         96         68   libspace.o
        40          6          0          0          0         84   noretval__2sprintf.o
         8          4          0          0          0         68   rt_errno_addr_intlibspace.o
        78          0          0          0          0         80   rt_memclr_w.o
         2          0          0          0          0          0   rtexit.o
        10          0          0          0          0          0   rtexit2.o
        62          0          0          0          0         76   strlen.o
        74          0          0          0          0         80   sys_stackheap_outer.o
         2          0          0          0          0         68   use_no_semi.o
         2          0          0          0          0         68   use_no_semi_2.o
        98          4          0          0          0         92   d2f.o
       826         16          0          0          0        348   daddsub_clz.o
        16          4          0          0          0         68   dcheck1.o
        24          0          0          0          0         68   dcmpi.o
       688        140          0          0          0        208   ddiv.o
        94          4          0          0          0         92   dfix.o
        84          0          0          0          0        136   dflt_clz.o
       120          4          0          0          0         92   dleqf.o
       340         12          0          0          0        104   dmul.o
       156          4          0          0          0         92   dnaninf.o
        12          0          0          0          0         68   dretinf.o
       108          0          0          0          0         80   drleqf.o
        86          4          0          0          0         84   f2d.o
       450          8          0          0          0        236   faddsub_clz.o
        62          4          0          0          0         84   ffixu.o
        38          0          0          0          0         68   fflt_clz.o
       258          4          0          0          0         84   fmul.o
       140          4          0          0          0         84   fnaninf.o
        10          0          0          0          0         68   fretinf.o
       100          0          0          0          0         68   retnan.o
        92          0          0          0          0         68   scalbn.o
        48          0          0          0          0         68   trapv.o
         0          0          0          0          0          0   usenofp.o
       252         22         48          0          0        124   cos_i.o
        34          6          0          0          0        204   dunder.o
        40          0          0          0          0         68   fpclassify.o
       170          0          0          0          0         96   poly.o
       904         76        200          0          0        140   rred.o
       160         10          0          0          0        108   sin.o
       236         12         40          0          0        128   sin_i.o

    ----------------------------------------------------------------------
      6370        366        288          0         96       4460   Library Totals
        28          0          0          0          0          0   (incl. Padding)

    ----------------------------------------------------------------------

      Code (inc. data)   RO Data    RW Data    ZI Data      Debug   Library Name

       696         28          0          0         96       1232   c_w.l
      3850        212          0          0          0       2360   fz_ws.l
      1796        126        288          0          0        868   m_ws.l

    ----------------------------------------------------------------------
      6370        366        288          0         96       4460   Library Totals

    ----------------------------------------------------------------------

==============================================================================


      Code (inc. data)   RO Data    RW Data    ZI Data      Debug   

     23052       1536       1772       1104       6448     407361   Grand Totals
     23052       1536       1772        240       6448     407361   ELF Image Totals (compressed)
     23052       1536       1772        240          0          0   ROM Totals

==============================================================================

    Total RO  Size (Code + RO Data)                24824 (  24.24kB)
    Total RW  Size (RW Data + ZI Data)              7552 (   7.38kB)
    Total ROM Size (Code + RO Data + RW Data)      25064 (  24.48kB)

==============================================================================

